$VAR1 = {
          'ABI_DUMPER_VERSION' => '1.3',
          'ABI_DUMP_VERSION' => '3.5',
          'Arch' => 'x86_64',
          'ClangVersion' => '13.0.1',
          'Headers' => {
                         'alloc_traits.h' => 1,
                         'allocator.h' => 1,
                         'atomic_word.h' => 1,
                         'baggage.h' => 1,
                         'baggage_context.h' => 1,
                         'baggage_propagator.h' => 1,
                         'basic_string.h' => 1,
                         'basic_string.tcc' => 1,
                         'c++allocator.h' => 1,
                         'c++config.h' => 1,
                         'char_traits.h' => 1,
                         'concurrence.h' => 1,
                         'context.h' => 1,
                         'context_value.h' => 1,
                         'kv_properties.h' => 1,
                         'new_allocator.h' => 1,
                         'shared_ptr.h' => 1,
                         'shared_ptr_base.h' => 1,
                         'stddef.h' => 1,
                         'string_util.h' => 1,
                         'string_view.h' => 1,
                         'stringfwd.h' => 1,
                         'text_map_propagator.h' => 1,
                         'type_traits' => 1,
                         'type_traits.h' => 1,
                         'unique_ptr.h' => 1,
                         'variant.h' => 1
                       },
          'Language' => 'C++',
          'LibraryName' => 'abi_check_baggage.o',
          'LibraryVersion' => 'latest',
          'MissedOffsets' => '1',
          'MissedRegs' => '1',
          'NameSpaces' => {
                            '__gnu_cxx' => 1,
                            'absl::otel_v1' => 1,
                            'absl::otel_v1::base_internal' => 1,
                            'absl::otel_v1::internal' => 1,
                            'absl::otel_v1::swap_internal' => 1,
                            'absl::otel_v1::variant_internal' => 1,
                            'opentelemetry::v1::baggage' => 1,
                            'opentelemetry::v1::baggage::propagation' => 1,
                            'opentelemetry::v1::common' => 1,
                            'opentelemetry::v1::context' => 1,
                            'opentelemetry::v1::context::propagation' => 1,
                            'opentelemetry::v1::nostd' => 1,
                            'opentelemetry::v1::nostd::detail' => 1,
                            'opentelemetry::v1::trace' => 1,
                            'std' => 1,
                            'std::__cxx11' => 1,
                            'std::__exception_ptr' => 1
                          },
          'Needed' => {},
          'Sources' => {
                         'abi_check_baggage.cc' => 1
                       },
          'SymbolInfo' => {
                            '1008' => {
                                        'Class' => '988',
                                        'Header' => 'baggage_propagator.h',
                                        'InLine' => 2,
                                        'Line' => '20',
                                        'MnglName' => '_ZN13opentelemetry2v17baggage11propagation17BaggagePropagator6InjectERNS0_7context11propagation14TextMapCarrierERKNS4_7ContextE',
                                        'Param' => {
                                                     '0' => {
                                                              'name' => 'this',
                                                              'type' => '35903'
                                                            },
                                                     '1' => {
                                                              'name' => 'carrier',
                                                              'type' => '35888'
                                                            },
                                                     '2' => {
                                                              'name' => 'context',
                                                              'type' => '35618'
                                                            }
                                                   },
                                        'Return' => '1',
                                        'ShortName' => 'Inject',
                                        'Virt' => 1,
                                        'VirtPos' => '1'
                                      },
                            '1044' => {
                                        'Class' => '988',
                                        'Header' => 'baggage_propagator.h',
                                        'InLine' => 2,
                                        'Line' => '31',
                                        'MnglName' => '_ZN13opentelemetry2v17baggage11propagation17BaggagePropagator7ExtractERKNS0_7context11propagation14TextMapCarrierERNS4_7ContextE',
                                        'Param' => {
                                                     '0' => {
                                                              'name' => 'this',
                                                              'type' => '35903'
                                                            },
                                                     '1' => {
                                                              'name' => 'carrier',
                                                              'type' => '35863'
                                                            },
                                                     '2' => {
                                                              'name' => 'context',
                                                              'type' => '35883'
                                                            }
                                                   },
                                        'Return' => '6587',
                                        'ShortName' => 'Extract',
                                        'Virt' => 1,
                                        'VirtPos' => '0'
                                      },
                            '1084' => {
                                        'Class' => '988',
                                        'Const' => 1,
                                        'Header' => 'baggage_propagator.h',
                                        'InLine' => 2,
                                        'Line' => '47',
                                        'MnglName' => '_ZNK13opentelemetry2v17baggage11propagation17BaggagePropagator6FieldsENS0_5nostd12function_refIFbNS4_11string_viewEEEE',
                                        'Param' => {
                                                     '0' => {
                                                              'name' => 'this',
                                                              'type' => '35908'
                                                            },
                                                     '1' => {
                                                              'name' => 'callback',
                                                              'type' => '5722'
                                                            }
                                                   },
                                        'Return' => '21663',
                                        'ShortName' => 'Fields',
                                        'Virt' => 1,
                                        'VirtPos' => '2'
                                      },
                            '1131' => {
                                        'Artificial' => 1,
                                        'Class' => '988',
                                        'Destructor' => 1,
                                        'Header' => 'baggage_propagator.h',
                                        'Line' => '17',
                                        'MnglName' => '_ZN13opentelemetry2v17baggage11propagation17BaggagePropagatorD0Ev',
                                        'Param' => {
                                                     '0' => {
                                                              'name' => 'this',
                                                              'type' => '35903'
                                                            }
                                                   },
                                        'ShortName' => '~BaggagePropagator',
                                        'Virt' => 1,
                                        'VirtPos' => '0'
                                      },
                            '1321' => {
                                        'Class' => '1198',
                                        'Destructor' => 1,
                                        'Header' => 'unique_ptr.h',
                                        'Line' => '64',
                                        'MnglName' => '_ZN13opentelemetry2v15nostd10unique_ptrINS0_6common18KeyValuePropertiesEED2Ev',
                                        'Param' => {
                                                     '0' => {
                                                              'name' => 'this',
                                                              'type' => '23778'
                                                            }
                                                   },
                                        'ShortName' => 'unique_ptr'
                                      },
                            '14836' => {
                                         'Class' => '14492',
                                         'Constructor' => 1,
                                         'Header' => 'shared_ptr_base.h',
                                         'Line' => '913',
                                         'MnglName' => '_ZNSt14__shared_countILN9__gnu_cxx12_Lock_policyE2EEC2IPN13opentelemetry2v17baggage7BaggageEEET_',
                                         'Param' => {
                                                      '0' => {
                                                               'name' => 'this',
                                                               'type' => '23937'
                                                             },
                                                      '1' => {
                                                               'name' => '__p',
                                                               'type' => '23808'
                                                             }
                                                    },
                                         'ShortName' => '__shared_count<opentelemetry::v1::baggage::Baggage*>',
                                         'TParam' => {
                                                       '0' => {
                                                                'key' => '_Ptr',
                                                                'type' => '23808'
                                                              }
                                                     }
                                       },
                            '14899' => {
                                         'Class' => '14492',
                                         'Constructor' => 1,
                                         'Header' => 'shared_ptr_base.h',
                                         'Line' => '913',
                                         'MnglName' => '_ZNSt14__shared_countILN9__gnu_cxx12_Lock_policyE2EEC2IPN13opentelemetry2v17context7Context8DataListEEET_',
                                         'Param' => {
                                                      '0' => {
                                                               'name' => 'this',
                                                               'type' => '23937'
                                                             },
                                                      '1' => {
                                                               'name' => '__p',
                                                               'type' => '35623'
                                                             }
                                                    },
                                         'ShortName' => '__shared_count<opentelemetry::v1::context::Context::DataList*>',
                                         'TParam' => {
                                                       '0' => {
                                                                'type' => '35623'
                                                              }
                                                     }
                                       },
                            '15007' => {
                                         'Class' => '14929',
                                         'Destructor' => 1,
                                         'Header' => 'shared_ptr_base.h',
                                         'Line' => '133',
                                         'MnglName' => '_ZNSt16_Sp_counted_baseILN9__gnu_cxx12_Lock_policyE2EED0Ev',
                                         'Param' => {
                                                      '0' => {
                                                               'name' => 'this',
                                                               'type' => '23867'
                                                             }
                                                    },
                                         'ShortName' => '~_Sp_counted_base',
                                         'Virt' => 1,
                                         'VirtPos' => '0'
                                       },
                            '15029' => {
                                         'Class' => '14929',
                                         'Header' => 'shared_ptr_base.h',
                                         'Line' => '139',
                                         'MnglName' => '_ZNSt16_Sp_counted_baseILN9__gnu_cxx12_Lock_policyE2EE10_M_disposeEv',
                                         'Param' => {
                                                      '0' => {
                                                               'name' => 'this',
                                                               'type' => '23867'
                                                             }
                                                    },
                                         'PureVirt' => 1,
                                         'Return' => '1',
                                         'ShortName' => '_M_dispose',
                                         'VirtPos' => '2'
                                       },
                            '15055' => {
                                         'Class' => '14929',
                                         'Header' => 'shared_ptr_base.h',
                                         'InLine' => 2,
                                         'Line' => '143',
                                         'MnglName' => '_ZNSt16_Sp_counted_baseILN9__gnu_cxx12_Lock_policyE2EE10_M_destroyEv',
                                         'Param' => {
                                                      '0' => {
                                                               'name' => 'this',
                                                               'type' => '23867'
                                                             }
                                                    },
                                         'Return' => '1',
                                         'ShortName' => '_M_destroy',
                                         'Virt' => 1,
                                         'VirtPos' => '3'
                                       },
                            '15081' => {
                                         'Class' => '14929',
                                         'Header' => 'shared_ptr_base.h',
                                         'Line' => '147',
                                         'MnglName' => '_ZNSt16_Sp_counted_baseILN9__gnu_cxx12_Lock_policyE2EE14_M_get_deleterERKSt9type_info',
                                         'Param' => {
                                                      '0' => {
                                                               'name' => 'this',
                                                               'type' => '23867'
                                                             },
                                                      '1' => {
                                                               'name' => 'p1',
                                                               'type' => '23907'
                                                             }
                                                    },
                                         'PureVirt' => 1,
                                         'Return' => '23716',
                                         'ShortName' => '_M_get_deleter',
                                         'VirtPos' => '4'
                                       },
                            '15212' => {
                                         'Class' => '14929',
                                         'Header' => 'shared_ptr_base.h',
                                         'InLine' => 2,
                                         'Line' => '198',
                                         'MnglName' => '_ZNSt16_Sp_counted_baseILN9__gnu_cxx12_Lock_policyE2EE24_M_release_last_use_coldEv',
                                         'Param' => {
                                                      '0' => {
                                                               'name' => 'this',
                                                               'type' => '23867'
                                                             }
                                                    },
                                         'Return' => '1',
                                         'ShortName' => '_M_release_last_use_cold'
                                       },
                            '18107' => {
                                         'Class' => '18034',
                                         'Header' => 'shared_ptr_base.h',
                                         'InLine' => 2,
                                         'Line' => '427',
                                         'MnglName' => '_ZNSt15_Sp_counted_ptrIPN13opentelemetry2v17baggage7BaggageELN9__gnu_cxx12_Lock_policyE2EE10_M_disposeEv',
                                         'Param' => {
                                                      '0' => {
                                                               'name' => 'this',
                                                               'type' => '35838'
                                                             }
                                                    },
                                         'Return' => '1',
                                         'ShortName' => '_M_dispose',
                                         'Virt' => 1,
                                         'VirtPos' => '2'
                                       },
                            '18134' => {
                                         'Class' => '18034',
                                         'Header' => 'shared_ptr_base.h',
                                         'InLine' => 2,
                                         'Line' => '431',
                                         'MnglName' => '_ZNSt15_Sp_counted_ptrIPN13opentelemetry2v17baggage7BaggageELN9__gnu_cxx12_Lock_policyE2EE10_M_destroyEv',
                                         'Param' => {
                                                      '0' => {
                                                               'name' => 'this',
                                                               'type' => '35838'
                                                             }
                                                    },
                                         'Return' => '1',
                                         'ShortName' => '_M_destroy',
                                         'Virt' => 1,
                                         'VirtPos' => '3'
                                       },
                            '18161' => {
                                         'Class' => '18034',
                                         'Header' => 'shared_ptr_base.h',
                                         'InLine' => 2,
                                         'Line' => '435',
                                         'MnglName' => '_ZNSt15_Sp_counted_ptrIPN13opentelemetry2v17baggage7BaggageELN9__gnu_cxx12_Lock_policyE2EE14_M_get_deleterERKSt9type_info',
                                         'Param' => {
                                                      '0' => {
                                                               'name' => 'this',
                                                               'type' => '35838'
                                                             },
                                                      '1' => {
                                                               'name' => 'p1',
                                                               'type' => '23907'
                                                             }
                                                    },
                                         'Return' => '23716',
                                         'ShortName' => '_M_get_deleter',
                                         'Virt' => 1,
                                         'VirtPos' => '4'
                                       },
                            '18245' => {
                                         'Artificial' => 1,
                                         'Class' => '18034',
                                         'Destructor' => 1,
                                         'Header' => 'shared_ptr_base.h',
                                         'Line' => '419',
                                         'MnglName' => '_ZNSt15_Sp_counted_ptrIPN13opentelemetry2v17baggage7BaggageELN9__gnu_cxx12_Lock_policyE2EED0Ev',
                                         'Param' => {
                                                      '0' => {
                                                               'name' => 'this',
                                                               'type' => '35838'
                                                             }
                                                    },
                                         'ShortName' => '~_Sp_counted_ptr',
                                         'Virt' => 1,
                                         'VirtPos' => '0'
                                       },
                            '18364' => {
                                         'Class' => '18291',
                                         'Header' => 'shared_ptr_base.h',
                                         'InLine' => 2,
                                         'Line' => '427',
                                         'MnglName' => '_ZNSt15_Sp_counted_ptrIPN13opentelemetry2v17context7Context8DataListELN9__gnu_cxx12_Lock_policyE2EE10_M_disposeEv',
                                         'Param' => {
                                                      '0' => {
                                                               'name' => 'this',
                                                               'type' => '36164'
                                                             }
                                                    },
                                         'Return' => '1',
                                         'ShortName' => '_M_dispose',
                                         'Virt' => 1,
                                         'VirtPos' => '2'
                                       },
                            '18391' => {
                                         'Class' => '18291',
                                         'Header' => 'shared_ptr_base.h',
                                         'InLine' => 2,
                                         'Line' => '431',
                                         'MnglName' => '_ZNSt15_Sp_counted_ptrIPN13opentelemetry2v17context7Context8DataListELN9__gnu_cxx12_Lock_policyE2EE10_M_destroyEv',
                                         'Param' => {
                                                      '0' => {
                                                               'name' => 'this',
                                                               'type' => '36164'
                                                             }
                                                    },
                                         'Return' => '1',
                                         'ShortName' => '_M_destroy',
                                         'Virt' => 1,
                                         'VirtPos' => '3'
                                       },
                            '18418' => {
                                         'Class' => '18291',
                                         'Header' => 'shared_ptr_base.h',
                                         'InLine' => 2,
                                         'Line' => '435',
                                         'MnglName' => '_ZNSt15_Sp_counted_ptrIPN13opentelemetry2v17context7Context8DataListELN9__gnu_cxx12_Lock_policyE2EE14_M_get_deleterERKSt9type_info',
                                         'Param' => {
                                                      '0' => {
                                                               'name' => 'this',
                                                               'type' => '36164'
                                                             },
                                                      '1' => {
                                                               'name' => 'p1',
                                                               'type' => '23907'
                                                             }
                                                    },
                                         'Return' => '23716',
                                         'ShortName' => '_M_get_deleter',
                                         'Virt' => 1,
                                         'VirtPos' => '4'
                                       },
                            '185' => {
                                       'Class' => '82',
                                       'Constructor' => 1,
                                       'Header' => 'baggage.h',
                                       'Line' => '29',
                                       'MnglName' => '_ZN13opentelemetry2v17baggage7BaggageC2Ev',
                                       'Param' => {
                                                    '0' => {
                                                             'name' => 'this',
                                                             'type' => '23808'
                                                           }
                                                  },
                                       'ShortName' => 'Baggage'
                                     },
                            '18502' => {
                                         'Artificial' => 1,
                                         'Class' => '18291',
                                         'Destructor' => 1,
                                         'Header' => 'shared_ptr_base.h',
                                         'Line' => '419',
                                         'MnglName' => '_ZNSt15_Sp_counted_ptrIPN13opentelemetry2v17context7Context8DataListELN9__gnu_cxx12_Lock_policyE2EED0Ev',
                                         'Param' => {
                                                      '0' => {
                                                               'name' => 'this',
                                                               'type' => '36164'
                                                             }
                                                    },
                                         'ShortName' => '~_Sp_counted_ptr',
                                         'Virt' => 1,
                                         'VirtPos' => '0'
                                       },
                            '218' => {
                                       'Class' => '82',
                                       'Header' => 'baggage.h',
                                       'InLine' => 2,
                                       'Line' => '39',
                                       'MnglName' => '_ZN13opentelemetry2v17baggage7Baggage10GetDefaultEv',
                                       'Return' => '3332',
                                       'ShortName' => 'GetDefault',
                                       'Static' => 1
                                     },
                            '26244' => {
                                         'Class' => '26166',
                                         'Constructor' => 1,
                                         'Header' => 'variant.h',
                                         'Line' => '488',
                                         'MnglName' => '_ZN4absl7otel_v17variantIJNS0_9monostateEblmdN13opentelemetry2v15nostd10shared_ptrINS4_5trace4SpanEEENS6_INS7_11SpanContextEEENS6_INS4_7baggage7BaggageEEEEEC2ERKSF_',
                                         'Param' => {
                                                      '0' => {
                                                               'name' => 'this',
                                                               'type' => '35513'
                                                             },
                                                      '1' => {
                                                               'name' => 'other',
                                                               'type' => '35518'
                                                             }
                                                    },
                                         'ShortName' => 'variant'
                                       },
                            '29980' => {
                                         'Class' => '29786',
                                         'Destructor' => 1,
                                         'Header' => 'variant.h',
                                         'Line' => '1315',
                                         'MnglName' => '_ZN4absl7otel_v116variant_internal36VariantStateBaseDestructorNontrivialIJNS0_9monostateEblmdN13opentelemetry2v15nostd10shared_ptrINS5_5trace4SpanEEENS7_INS8_11SpanContextEEENS7_INS5_7baggage7BaggageEEEEED2Ev',
                                         'Param' => {
                                                      '0' => {
                                                               'name' => 'this',
                                                               'type' => '35388'
                                                             }
                                                    },
                                         'Protected' => 1,
                                         'ShortName' => 'VariantStateBaseDestructorNontrivial'
                                       },
                            '31300' => {
                                         'Class' => '31208',
                                         'Header' => 'variant.h',
                                         'InLine' => 2,
                                         'Line' => '357',
                                         'MnglName' => '_ZN4absl7otel_v116variant_internal18VisitIndicesSwitchILm8EE3RunINS1_17VariantCoreAccess17CopyAssignVisitorINS1_31VariantCopyAssignBaseNontrivialIJNS0_9monostateEblmdN13opentelemetry2v15nostd10shared_ptrINSA_5trace4SpanEEENSC_INSD_11SpanContextEEENSC_INSA_7baggage7BaggageEEEEEEEEEENS1_22VisitIndicesResultImplIT_JmEE4typeEOSO_m',
                                         'Param' => {
                                                      '0' => {
                                                               'name' => 'op',
                                                               'type' => '73690'
                                                             },
                                                      '1' => {
                                                               'name' => 'i',
                                                               'type' => '12924'
                                                             }
                                                    },
                                         'Return' => '32442',
                                         'ShortName' => 'Run<absl::otel_v1::variant_internal::VariantCoreAccess::CopyAssignVisitor<absl::otel_v1::variant_internal::VariantCopyAssignBaseNontrivial<absl::otel_v1::monostate> > >',
                                         'Static' => 1,
                                         'TParam' => {
                                                       '0' => {
                                                                'key' => 'Op',
                                                                'type' => '31590'
                                                              }
                                                     }
                                       },
                            '3424' => {
                                        'Class' => '3332',
                                        'Constructor' => 1,
                                        'Header' => 'shared_ptr.h',
                                        'Line' => '78',
                                        'MnglName' => '_ZN13opentelemetry2v15nostd10shared_ptrINS0_7baggage7BaggageEEC2EPS4_',
                                        'Param' => {
                                                     '0' => {
                                                              'name' => 'this',
                                                              'type' => '23825'
                                                            },
                                                     '1' => {
                                                              'name' => 'ptr',
                                                              'type' => '3443'
                                                            }
                                                   },
                                        'ShortName' => 'shared_ptr'
                                      },
                            '34921' => {
                                         'Class' => '34892',
                                         'Header' => 'baggage.h',
                                         'InLine' => 2,
                                         'Line' => '169',
                                         'MnglName' => '_ZZNK13opentelemetry2v17baggage7Baggage8ToHeaderB5cxx11EvENKUlNS0_5nostd11string_viewES4_E_clES4_S4_',
                                         'Param' => {
                                                      '0' => {
                                                               'name' => 'this',
                                                               'type' => '54138'
                                                             },
                                                      '1' => {
                                                               'name' => 'key',
                                                               'type' => '2455'
                                                             },
                                                      '2' => {
                                                               'name' => 'value',
                                                               'type' => '2455'
                                                             }
                                                    },
                                         'Return' => '21663',
                                         'ShortName' => 'operator()'
                                       },
                            '352' => {
                                       'Class' => '82',
                                       'Header' => 'baggage.h',
                                       'InLine' => 2,
                                       'Line' => '110',
                                       'MnglName' => '_ZN13opentelemetry2v17baggage7Baggage10FromHeaderENS0_5nostd11string_viewE',
                                       'Param' => {
                                                    '0' => {
                                                             'name' => 'header',
                                                             'type' => '2455'
                                                           }
                                                  },
                                       'Return' => '3332',
                                       'ShortName' => 'FromHeader',
                                       'Static' => 1
                                     },
                            '3560' => {
                                        'Class' => '3332',
                                        'Destructor' => 1,
                                        'Header' => 'shared_ptr.h',
                                        'Line' => '112',
                                        'MnglName' => '_ZN13opentelemetry2v15nostd10shared_ptrINS0_7baggage7BaggageEED2Ev',
                                        'Param' => {
                                                     '0' => {
                                                              'name' => 'this',
                                                              'type' => '23825'
                                                            }
                                                   },
                                        'ShortName' => 'shared_ptr'
                                      },
                            '35938' => {
                                         'Class' => '35918',
                                         'Const' => 1,
                                         'InLine' => 2,
                                         'Line' => '44',
                                         'MnglName' => '_ZNK17AbiTextMapCarrier3GetEN13opentelemetry2v15nostd11string_viewE',
                                         'Param' => {
                                                      '0' => {
                                                               'name' => 'this',
                                                               'type' => '36079'
                                                             },
                                                      '1' => {
                                                               'name' => 'p1',
                                                               'type' => '2455'
                                                             }
                                                    },
                                         'Return' => '2455',
                                         'ShortName' => 'Get',
                                         'Source' => 'abi_check_baggage.cc',
                                         'Virt' => 1,
                                         'VirtPos' => '0'
                                       },
                            '35973' => {
                                         'Class' => '35918',
                                         'InLine' => 2,
                                         'Line' => '49',
                                         'MnglName' => '_ZN17AbiTextMapCarrier3SetEN13opentelemetry2v15nostd11string_viewES3_',
                                         'Param' => {
                                                      '0' => {
                                                               'name' => 'this',
                                                               'type' => '36089'
                                                             },
                                                      '1' => {
                                                               'name' => 'p1',
                                                               'type' => '2455'
                                                             },
                                                      '2' => {
                                                               'name' => 'p2',
                                                               'type' => '2455'
                                                             }
                                                    },
                                         'Return' => '1',
                                         'ShortName' => 'Set',
                                         'Source' => 'abi_check_baggage.cc',
                                         'Virt' => 1,
                                         'VirtPos' => '1'
                                       },
                            '36009' => {
                                         'Class' => '35918',
                                         'Const' => 1,
                                         'InLine' => 2,
                                         'Line' => '51',
                                         'MnglName' => '_ZNK17AbiTextMapCarrier4KeysEN13opentelemetry2v15nostd12function_refIFbNS2_11string_viewEEEE',
                                         'Param' => {
                                                      '0' => {
                                                               'name' => 'this',
                                                               'type' => '36079'
                                                             },
                                                      '1' => {
                                                               'name' => 'p1',
                                                               'type' => '5722'
                                                             }
                                                    },
                                         'Return' => '21663',
                                         'ShortName' => 'Keys',
                                         'Source' => 'abi_check_baggage.cc',
                                         'Virt' => 1,
                                         'VirtPos' => '2'
                                       },
                            '36044' => {
                                         'Class' => '35918',
                                         'Destructor' => 1,
                                         'Line' => '56',
                                         'MnglName' => '_ZN17AbiTextMapCarrierD0Ev',
                                         'Param' => {
                                                      '0' => {
                                                               'name' => 'this',
                                                               'type' => '36089'
                                                             }
                                                    },
                                         'ShortName' => '~AbiTextMapCarrier',
                                         'Source' => 'abi_check_baggage.cc',
                                         'Virt' => 1,
                                         'VirtPos' => '0'
                                       },
                            '3855' => {
                                        'Destructor' => 1,
                                        'MnglName' => '_ZN13opentelemetry2v15nostd10shared_ptrINS0_7baggage7BaggageEE18shared_ptr_wrapperD0Ev',
                                        'Param' => {
                                                     '0' => {
                                                              'name' => 'this',
                                                              'type' => '24097'
                                                            }
                                                   }
                                      },
                            '3877' => {
                                        'Class' => '3787',
                                        'Const' => 1,
                                        'Header' => 'shared_ptr.h',
                                        'InLine' => 2,
                                        'Line' => '46',
                                        'MnglName' => '_ZNK13opentelemetry2v15nostd10shared_ptrINS0_7baggage7BaggageEE18shared_ptr_wrapper6CopyToERNS5_15PlacementBufferE',
                                        'Param' => {
                                                     '0' => {
                                                              'name' => 'this',
                                                              'type' => '24102'
                                                            },
                                                     '1' => {
                                                              'name' => 'buffer',
                                                              'type' => '24112'
                                                            }
                                                   },
                                        'Return' => '1',
                                        'ShortName' => 'CopyTo',
                                        'Virt' => 1,
                                        'VirtPos' => '2'
                                      },
                            '3908' => {
                                        'Class' => '3787',
                                        'Header' => 'shared_ptr.h',
                                        'InLine' => 2,
                                        'Line' => '51',
                                        'MnglName' => '_ZN13opentelemetry2v15nostd10shared_ptrINS0_7baggage7BaggageEE18shared_ptr_wrapper6MoveToERNS5_15PlacementBufferE',
                                        'Param' => {
                                                     '0' => {
                                                              'name' => 'this',
                                                              'type' => '24097'
                                                            },
                                                     '1' => {
                                                              'name' => 'buffer',
                                                              'type' => '24112'
                                                            }
                                                   },
                                        'Return' => '1',
                                        'ShortName' => 'MoveTo',
                                        'Virt' => 1,
                                        'VirtPos' => '3'
                                      },
                            '3939' => {
                                        'Class' => '3787',
                                        'Const' => 1,
                                        'Header' => 'shared_ptr.h',
                                        'InLine' => 2,
                                        'Line' => '64',
                                        'MnglName' => '_ZNK13opentelemetry2v15nostd10shared_ptrINS0_7baggage7BaggageEE18shared_ptr_wrapper3GetEv',
                                        'Param' => {
                                                     '0' => {
                                                              'name' => 'this',
                                                              'type' => '24102'
                                                            }
                                                   },
                                        'Return' => '3443',
                                        'ShortName' => 'Get',
                                        'Virt' => 1,
                                        'VirtPos' => '4'
                                      },
                            '3969' => {
                                        'Class' => '3787',
                                        'Header' => 'shared_ptr.h',
                                        'InLine' => 2,
                                        'Line' => '66',
                                        'MnglName' => '_ZN13opentelemetry2v15nostd10shared_ptrINS0_7baggage7BaggageEE18shared_ptr_wrapper5ResetEv',
                                        'Param' => {
                                                     '0' => {
                                                              'name' => 'this',
                                                              'type' => '24097'
                                                            }
                                                   },
                                        'Return' => '1',
                                        'ShortName' => 'Reset',
                                        'Virt' => 1,
                                        'VirtPos' => '5'
                                      },
                            '43354' => {
                                         'Line' => '59',
                                         'MnglName' => '_Z20do_abi_check_baggagev',
                                         'Return' => '1',
                                         'ShortName' => 'do_abi_check_baggage',
                                         'Source' => 'abi_check_baggage.cc'
                                       },
                            '459' => {
                                       'Class' => '82',
                                       'Header' => 'baggage.h',
                                       'InLine' => 2,
                                       'Line' => '218',
                                       'MnglName' => '_ZN13opentelemetry2v17baggage7Baggage9UrlEncodeB5cxx11ENS0_5nostd11string_viewE',
                                       'Param' => {
                                                    '0' => {
                                                             'name' => 'str',
                                                             'type' => '2455'
                                                           }
                                                  },
                                       'Private' => 1,
                                       'Return' => '7269',
                                       'ShortName' => 'UrlEncode',
                                       'Static' => 1
                                     },
                            '480' => {
                                       'Class' => '82',
                                       'Header' => 'baggage.h',
                                       'InLine' => 2,
                                       'Line' => '249',
                                       'MnglName' => '_ZN13opentelemetry2v17baggage7Baggage9UrlDecodeB5cxx11ENS0_5nostd11string_viewERb',
                                       'Param' => {
                                                    '0' => {
                                                             'name' => 'str',
                                                             'type' => '2455'
                                                           },
                                                    '1' => {
                                                             'name' => 'err',
                                                             'type' => '24137'
                                                           }
                                                  },
                                       'Private' => 1,
                                       'Return' => '7269',
                                       'ShortName' => 'UrlDecode',
                                       'Static' => 1
                                     },
                            '519' => {
                                       'Header' => 'baggage_context.h',
                                       'InLine' => 2,
                                       'Line' => '18',
                                       'MnglName' => '_ZN13opentelemetry2v17baggage10GetBaggageERKNS0_7context7ContextE',
                                       'NameSpace' => 'opentelemetry::v1::baggage',
                                       'Param' => {
                                                    '0' => {
                                                             'name' => 'context',
                                                             'type' => '35618'
                                                           }
                                                  },
                                       'Return' => '3332',
                                       'ShortName' => 'GetBaggage'
                                     },
                            '5537' => {
                                        'Destructor' => 1,
                                        'MnglName' => '_ZN13opentelemetry2v15nostd10shared_ptrINS0_7context7Context8DataListEE18shared_ptr_wrapperD0Ev',
                                        'Param' => {
                                                     '0' => {
                                                              'name' => 'this',
                                                              'type' => '35598'
                                                            }
                                                   }
                                      },
                            '5559' => {
                                        'Class' => '5469',
                                        'Const' => 1,
                                        'Header' => 'shared_ptr.h',
                                        'InLine' => 2,
                                        'Line' => '46',
                                        'MnglName' => '_ZNK13opentelemetry2v15nostd10shared_ptrINS0_7context7Context8DataListEE18shared_ptr_wrapper6CopyToERNS6_15PlacementBufferE',
                                        'Param' => {
                                                     '0' => {
                                                              'name' => 'this',
                                                              'type' => '35808'
                                                            },
                                                     '1' => {
                                                              'name' => 'buffer',
                                                              'type' => '35818'
                                                            }
                                                   },
                                        'Return' => '1',
                                        'ShortName' => 'CopyTo',
                                        'Virt' => 1,
                                        'VirtPos' => '2'
                                      },
                            '5590' => {
                                        'Class' => '5469',
                                        'Header' => 'shared_ptr.h',
                                        'InLine' => 2,
                                        'Line' => '51',
                                        'MnglName' => '_ZN13opentelemetry2v15nostd10shared_ptrINS0_7context7Context8DataListEE18shared_ptr_wrapper6MoveToERNS6_15PlacementBufferE',
                                        'Param' => {
                                                     '0' => {
                                                              'name' => 'this',
                                                              'type' => '35598'
                                                            },
                                                     '1' => {
                                                              'name' => 'buffer',
                                                              'type' => '35818'
                                                            }
                                                   },
                                        'Return' => '1',
                                        'ShortName' => 'MoveTo',
                                        'Virt' => 1,
                                        'VirtPos' => '3'
                                      },
                            '5621' => {
                                        'Class' => '5469',
                                        'Const' => 1,
                                        'Header' => 'shared_ptr.h',
                                        'InLine' => 2,
                                        'Line' => '64',
                                        'MnglName' => '_ZNK13opentelemetry2v15nostd10shared_ptrINS0_7context7Context8DataListEE18shared_ptr_wrapper3GetEv',
                                        'Param' => {
                                                     '0' => {
                                                              'name' => 'this',
                                                              'type' => '35808'
                                                            }
                                                   },
                                        'Return' => '5125',
                                        'ShortName' => 'Get',
                                        'Virt' => 1,
                                        'VirtPos' => '4'
                                      },
                            '5651' => {
                                        'Class' => '5469',
                                        'Header' => 'shared_ptr.h',
                                        'InLine' => 2,
                                        'Line' => '66',
                                        'MnglName' => '_ZN13opentelemetry2v15nostd10shared_ptrINS0_7context7Context8DataListEE18shared_ptr_wrapper5ResetEv',
                                        'Param' => {
                                                     '0' => {
                                                              'name' => 'this',
                                                              'type' => '35598'
                                                            }
                                                   },
                                        'Return' => '1',
                                        'ShortName' => 'Reset',
                                        'Virt' => 1,
                                        'VirtPos' => '5'
                                      },
                            '5775' => {
                                        'Class' => '5755',
                                        'Const' => 1,
                                        'Header' => 'variant.h',
                                        'Line' => '26',
                                        'MnglName' => '_ZNK13opentelemetry2v15nostd18bad_variant_access4whatEv',
                                        'Param' => {
                                                     '0' => {
                                                              'name' => 'this',
                                                              'type' => '36199'
                                                            }
                                                   },
                                        'PureVirt' => 1,
                                        'Return' => '21734',
                                        'ShortName' => 'what',
                                        'VirtPos' => '2'
                                      },
                            '58509' => {
                                         'Destructor' => 1,
                                         'MnglName' => '_ZNSt16_Sp_counted_baseILN9__gnu_cxx12_Lock_policyE2EED2Ev',
                                         'Param' => {
                                                      '0' => {
                                                               'name' => 'this',
                                                               'type' => '23867'
                                                             }
                                                    }
                                       },
                            '59810' => {
                                         'Class' => '3787',
                                         'Destructor' => 1,
                                         'Header' => 'shared_ptr.h',
                                         'Line' => '44',
                                         'MnglName' => '_ZN13opentelemetry2v15nostd10shared_ptrINS0_7baggage7BaggageEE18shared_ptr_wrapperD2Ev',
                                         'Param' => {
                                                      '0' => {
                                                               'name' => 'this',
                                                               'type' => '24097'
                                                             }
                                                    },
                                         'ShortName' => 'shared_ptr_wrapper',
                                         'Virt' => 1
                                       },
                            '6169' => {
                                        'Class' => '5819',
                                        'Header' => 'kv_properties.h',
                                        'InLine' => 2,
                                        'Line' => '230',
                                        'MnglName' => '_ZN13opentelemetry2v16common18KeyValueProperties8AddEntryENS0_5nostd11string_viewES4_',
                                        'Param' => {
                                                     '0' => {
                                                              'name' => 'this',
                                                              'type' => '23685'
                                                            },
                                                     '1' => {
                                                              'name' => 'key',
                                                              'type' => '2455'
                                                            },
                                                     '2' => {
                                                              'name' => 'value',
                                                              'type' => '2455'
                                                            }
                                                   },
                                        'Return' => '1',
                                        'ShortName' => 'AddEntry'
                                      },
                            '62141' => {
                                         'Class' => '5469',
                                         'Destructor' => 1,
                                         'Header' => 'shared_ptr.h',
                                         'Line' => '44',
                                         'MnglName' => '_ZN13opentelemetry2v15nostd10shared_ptrINS0_7context7Context8DataListEE18shared_ptr_wrapperD2Ev',
                                         'Param' => {
                                                      '0' => {
                                                               'name' => 'this',
                                                               'type' => '35598'
                                                             }
                                                    },
                                         'ShortName' => 'shared_ptr_wrapper',
                                         'Virt' => 1
                                       },
                            '6361' => {
                                        'Class' => '6292',
                                        'Header' => 'kv_properties.h',
                                        'InLine' => 2,
                                        'Line' => '40',
                                        'MnglName' => '_ZN13opentelemetry2v16common23KeyValueStringTokenizer20GetDefaultKeyOrValueEv',
                                        'Return' => '2455',
                                        'ShortName' => 'GetDefaultKeyOrValue',
                                        'Static' => 1
                                      },
                            '6377' => {
                                        'Class' => '6292',
                                        'Header' => 'kv_properties.h',
                                        'InLine' => 2,
                                        'Line' => '51',
                                        'MnglName' => '_ZN13opentelemetry2v16common23KeyValueStringTokenizer4nextERbRNS0_5nostd11string_viewES6_',
                                        'Param' => {
                                                     '0' => {
                                                              'name' => 'this',
                                                              'type' => '24289'
                                                            },
                                                     '1' => {
                                                              'name' => 'valid_kv',
                                                              'type' => '24137'
                                                            },
                                                     '2' => {
                                                              'name' => 'key',
                                                              'type' => '24304'
                                                            },
                                                     '3' => {
                                                              'name' => 'value',
                                                              'type' => '24304'
                                                            }
                                                   },
                                        'Return' => '21663',
                                        'ShortName' => 'next'
                                      },
                            '6510' => {
                                        'Class' => '6501',
                                        'Header' => 'string_util.h',
                                        'InLine' => 2,
                                        'Line' => '15',
                                        'MnglName' => '_ZN13opentelemetry2v16common10StringUtil4TrimENS0_5nostd11string_viewEmm',
                                        'Param' => {
                                                     '0' => {
                                                              'name' => 'str',
                                                              'type' => '2455'
                                                            },
                                                     '1' => {
                                                              'name' => 'left',
                                                              'type' => '23522'
                                                            },
                                                     '2' => {
                                                              'name' => 'right',
                                                              'type' => '23522'
                                                            }
                                                   },
                                        'Return' => '2455',
                                        'ShortName' => 'Trim',
                                        'Static' => 1
                                      },
                            '6622' => {
                                        'Class' => '6587',
                                        'Constructor' => 1,
                                        'Header' => 'context.h',
                                        'Line' => '34',
                                        'MnglName' => '_ZN13opentelemetry2v17context7ContextC2ENS0_5nostd11string_viewEN4absl7otel_v17variantIJNS6_9monostateEblmdNS3_10shared_ptrINS0_5trace4SpanEEENS9_INSA_11SpanContextEEENS9_INS0_7baggage7BaggageEEEEEE',
                                        'Param' => {
                                                     '0' => {
                                                              'name' => 'this',
                                                              'type' => '35603'
                                                            },
                                                     '1' => {
                                                              'name' => 'key',
                                                              'type' => '2455'
                                                            },
                                                     '2' => {
                                                              'name' => 'value',
                                                              'type' => '6930'
                                                            }
                                                   },
                                        'ShortName' => 'Context'
                                      },
                            '6646' => {
                                        'Class' => '6587',
                                        'Header' => 'context.h',
                                        'InLine' => 2,
                                        'Line' => '58',
                                        'MnglName' => '_ZN13opentelemetry2v17context7Context8SetValueENS0_5nostd11string_viewEN4absl7otel_v17variantIJNS6_9monostateEblmdNS3_10shared_ptrINS0_5trace4SpanEEENS9_INSA_11SpanContextEEENS9_INS0_7baggage7BaggageEEEEEE',
                                        'Param' => {
                                                     '0' => {
                                                              'name' => 'this',
                                                              'type' => '35603'
                                                            },
                                                     '1' => {
                                                              'name' => 'key',
                                                              'type' => '2455'
                                                            },
                                                     '2' => {
                                                              'name' => 'value',
                                                              'type' => '6930'
                                                            }
                                                   },
                                        'Return' => '6587',
                                        'ShortName' => 'SetValue'
                                      },
                            '6678' => {
                                        'Class' => '6587',
                                        'Const' => 1,
                                        'Header' => 'context.h',
                                        'InLine' => 2,
                                        'Line' => '66',
                                        'MnglName' => '_ZNK13opentelemetry2v17context7Context8GetValueENS0_5nostd11string_viewE',
                                        'Param' => {
                                                     '0' => {
                                                              'name' => 'this',
                                                              'type' => '35608'
                                                            },
                                                     '1' => {
                                                              'name' => 'key',
                                                              'type' => '23640'
                                                            }
                                                   },
                                        'Return' => '6930',
                                        'ShortName' => 'GetValue'
                                      },
                            '6834' => {
                                        'Class' => '6759',
                                        'Constructor' => 1,
                                        'Header' => 'context.h',
                                        'Line' => '127',
                                        'MnglName' => '_ZN13opentelemetry2v17context7Context8DataListC2ENS0_5nostd11string_viewERKN4absl7otel_v17variantIJNS7_9monostateEblmdNS4_10shared_ptrINS0_5trace4SpanEEENSA_INSB_11SpanContextEEENSA_INS0_7baggage7BaggageEEEEEE',
                                        'Param' => {
                                                     '0' => {
                                                              'name' => 'this',
                                                              'type' => '35623'
                                                            },
                                                     '1' => {
                                                              'name' => 'key',
                                                              'type' => '2455'
                                                            },
                                                     '2' => {
                                                              'name' => 'value',
                                                              'type' => '35628'
                                                            }
                                                   },
                                        'ShortName' => 'DataList'
                                      },
                            '6885' => {
                                        'Class' => '6759',
                                        'Destructor' => 1,
                                        'Header' => 'context.h',
                                        'Line' => '148',
                                        'MnglName' => '_ZN13opentelemetry2v17context7Context8DataListD2Ev',
                                        'Param' => {
                                                     '0' => {
                                                              'name' => 'this',
                                                              'type' => '35623'
                                                            }
                                                   },
                                        'ShortName' => 'DataList'
                                      },
                            '6969' => {
                                        'Class' => '6946',
                                        'Header' => 'text_map_propagator.h',
                                        'Line' => '46',
                                        'MnglName' => '_ZN13opentelemetry2v17context11propagation17TextMapPropagator7ExtractERKNS2_14TextMapCarrierERNS1_7ContextE',
                                        'Param' => {
                                                     '0' => {
                                                              'name' => 'this',
                                                              'type' => '35858'
                                                            },
                                                     '1' => {
                                                              'name' => 'p1',
                                                              'type' => '35863'
                                                            },
                                                     '2' => {
                                                              'name' => 'p2',
                                                              'type' => '35883'
                                                            }
                                                   },
                                        'PureVirt' => 1,
                                        'Return' => '6587',
                                        'ShortName' => 'Extract',
                                        'VirtPos' => '0'
                                      },
                            '7009' => {
                                        'Class' => '6946',
                                        'Header' => 'text_map_propagator.h',
                                        'Line' => '50',
                                        'MnglName' => '_ZN13opentelemetry2v17context11propagation17TextMapPropagator6InjectERNS2_14TextMapCarrierERKNS1_7ContextE',
                                        'Param' => {
                                                     '0' => {
                                                              'name' => 'this',
                                                              'type' => '35858'
                                                            },
                                                     '1' => {
                                                              'name' => 'p1',
                                                              'type' => '35888'
                                                            },
                                                     '2' => {
                                                              'name' => 'p2',
                                                              'type' => '35618'
                                                            }
                                                   },
                                        'PureVirt' => 1,
                                        'Return' => '1',
                                        'ShortName' => 'Inject',
                                        'VirtPos' => '1'
                                      },
                            '7045' => {
                                        'Class' => '6946',
                                        'Const' => 1,
                                        'Header' => 'text_map_propagator.h',
                                        'Line' => '53',
                                        'MnglName' => '_ZNK13opentelemetry2v17context11propagation17TextMapPropagator6FieldsENS0_5nostd12function_refIFbNS4_11string_viewEEEE',
                                        'Param' => {
                                                     '0' => {
                                                              'name' => 'this',
                                                              'type' => '35893'
                                                            },
                                                     '1' => {
                                                              'name' => 'p1',
                                                              'type' => '5722'
                                                            }
                                                   },
                                        'PureVirt' => 1,
                                        'Return' => '21663',
                                        'ShortName' => 'Fields',
                                        'VirtPos' => '2'
                                      },
                            '7080' => {
                                        'Class' => '6946',
                                        'Destructor' => 1,
                                        'Header' => 'text_map_propagator.h',
                                        'Line' => '55',
                                        'MnglName' => '_ZN13opentelemetry2v17context11propagation17TextMapPropagatorD2Ev',
                                        'Param' => {
                                                     '0' => {
                                                              'name' => 'this',
                                                              'type' => '35858'
                                                            }
                                                   },
                                        'ShortName' => '~TextMapPropagator',
                                        'Virt' => 1,
                                        'VirtPos' => '0'
                                      },
                            '7126' => {
                                        'Class' => '7103',
                                        'Const' => 1,
                                        'Header' => 'text_map_propagator.h',
                                        'Line' => '22',
                                        'MnglName' => '_ZNK13opentelemetry2v17context11propagation14TextMapCarrier3GetENS0_5nostd11string_viewE',
                                        'Param' => {
                                                     '0' => {
                                                              'name' => 'this',
                                                              'type' => '35873'
                                                            },
                                                     '1' => {
                                                              'name' => 'p1',
                                                              'type' => '2455'
                                                            }
                                                   },
                                        'PureVirt' => 1,
                                        'Return' => '2455',
                                        'ShortName' => 'Get',
                                        'VirtPos' => '0'
                                      },
                            '7161' => {
                                        'Class' => '7103',
                                        'Header' => 'text_map_propagator.h',
                                        'Line' => '25',
                                        'MnglName' => '_ZN13opentelemetry2v17context11propagation14TextMapCarrier3SetENS0_5nostd11string_viewES5_',
                                        'Param' => {
                                                     '0' => {
                                                              'name' => 'this',
                                                              'type' => '35878'
                                                            },
                                                     '1' => {
                                                              'name' => 'p1',
                                                              'type' => '2455'
                                                            },
                                                     '2' => {
                                                              'name' => 'p2',
                                                              'type' => '2455'
                                                            }
                                                   },
                                        'PureVirt' => 1,
                                        'Return' => '1',
                                        'ShortName' => 'Set',
                                        'VirtPos' => '1'
                                      },
                            '7197' => {
                                        'Class' => '7103',
                                        'Const' => 1,
                                        'Header' => 'text_map_propagator.h',
                                        'Line' => '29',
                                        'MnglName' => '_ZNK13opentelemetry2v17context11propagation14TextMapCarrier4KeysENS0_5nostd12function_refIFbNS4_11string_viewEEEE',
                                        'Param' => {
                                                     '0' => {
                                                              'name' => 'this',
                                                              'type' => '35873'
                                                            },
                                                     '1' => {
                                                              'name' => 'p1',
                                                              'type' => '5722'
                                                            }
                                                   },
                                        'PureVirt' => 1,
                                        'Return' => '21663',
                                        'ShortName' => 'Keys',
                                        'VirtPos' => '2'
                                      },
                            '7232' => {
                                        'Class' => '7103',
                                        'Destructor' => 1,
                                        'Header' => 'text_map_propagator.h',
                                        'Line' => '33',
                                        'MnglName' => '_ZN13opentelemetry2v17context11propagation14TextMapCarrierD2Ev',
                                        'Param' => {
                                                     '0' => {
                                                              'name' => 'this',
                                                              'type' => '35878'
                                                            }
                                                   },
                                        'ShortName' => '~TextMapCarrier',
                                        'Virt' => 1,
                                        'VirtPos' => '0'
                                      }
                          },
          'SymbolVersion' => {},
          'Symbols' => {
                         'abi_check_baggage.o' => {
                                                    '_Z20do_abi_check_baggagev' => 1,
                                                    '_ZGVZN13opentelemetry2v16common23KeyValueStringTokenizer20GetDefaultKeyOrValueEvE11default_strB5cxx11' => -8,
                                                    '_ZGVZN13opentelemetry2v17baggage10GetBaggageERKNS0_7context7ContextEE13empty_baggage' => -8,
                                                    '_ZGVZN13opentelemetry2v17baggage7Baggage10GetDefaultEvE7baggage' => -8,
                                                    '_ZN13opentelemetry2v15nostd10shared_ptrINS0_7baggage7BaggageEE18shared_ptr_wrapper5ResetEv' => 1,
                                                    '_ZN13opentelemetry2v15nostd10shared_ptrINS0_7baggage7BaggageEE18shared_ptr_wrapper6MoveToERNS5_15PlacementBufferE' => 1,
                                                    '_ZN13opentelemetry2v15nostd10shared_ptrINS0_7baggage7BaggageEE18shared_ptr_wrapperD0Ev' => 1,
                                                    '_ZN13opentelemetry2v15nostd10shared_ptrINS0_7baggage7BaggageEE18shared_ptr_wrapperD2Ev' => 1,
                                                    '_ZN13opentelemetry2v15nostd10shared_ptrINS0_7baggage7BaggageEEC2EPS4_' => 1,
                                                    '_ZN13opentelemetry2v15nostd10shared_ptrINS0_7baggage7BaggageEED2Ev' => 1,
                                                    '_ZN13opentelemetry2v15nostd10shared_ptrINS0_7context7Context8DataListEE18shared_ptr_wrapper5ResetEv' => 1,
                                                    '_ZN13opentelemetry2v15nostd10shared_ptrINS0_7context7Context8DataListEE18shared_ptr_wrapper6MoveToERNS6_15PlacementBufferE' => 1,
                                                    '_ZN13opentelemetry2v15nostd10shared_ptrINS0_7context7Context8DataListEE18shared_ptr_wrapperD0Ev' => 1,
                                                    '_ZN13opentelemetry2v15nostd10shared_ptrINS0_7context7Context8DataListEE18shared_ptr_wrapperD2Ev' => 1,
                                                    '_ZN13opentelemetry2v15nostd10unique_ptrINS0_6common18KeyValuePropertiesEED2Ev' => 1,
                                                    '_ZN13opentelemetry2v16common10StringUtil4TrimENS0_5nostd11string_viewEmm' => 1,
                                                    '_ZN13opentelemetry2v16common18KeyValueProperties8AddEntryENS0_5nostd11string_viewES4_' => 1,
                                                    '_ZN13opentelemetry2v16common23KeyValueStringTokenizer20GetDefaultKeyOrValueEv' => 1,
                                                    '_ZN13opentelemetry2v16common23KeyValueStringTokenizer4nextERbRNS0_5nostd11string_viewES6_' => 1,
                                                    '_ZN13opentelemetry2v17baggage10GetBaggageERKNS0_7context7ContextE' => 1,
                                                    '_ZN13opentelemetry2v17baggage11propagation17BaggagePropagator6InjectERNS0_7context11propagation14TextMapCarrierERKNS4_7ContextE' => 1,
                                                    '_ZN13opentelemetry2v17baggage11propagation17BaggagePropagator7ExtractERKNS0_7context11propagation14TextMapCarrierERNS4_7ContextE' => 1,
                                                    '_ZN13opentelemetry2v17baggage11propagation17BaggagePropagatorD0Ev' => 1,
                                                    '_ZN13opentelemetry2v17baggage7Baggage10FromHeaderENS0_5nostd11string_viewE' => 1,
                                                    '_ZN13opentelemetry2v17baggage7Baggage10GetDefaultEv' => 1,
                                                    '_ZN13opentelemetry2v17baggage7Baggage9UrlDecodeB5cxx11ENS0_5nostd11string_viewERb' => 1,
                                                    '_ZN13opentelemetry2v17baggage7Baggage9UrlEncodeB5cxx11ENS0_5nostd11string_viewE' => 1,
                                                    '_ZN13opentelemetry2v17baggage7BaggageC2Ev' => 1,
                                                    '_ZN13opentelemetry2v17context11propagation14TextMapCarrierD2Ev' => 1,
                                                    '_ZN13opentelemetry2v17context11propagation17TextMapPropagatorD2Ev' => 1,
                                                    '_ZN13opentelemetry2v17context7Context8DataListC2ENS0_5nostd11string_viewERKN4absl7otel_v17variantIJNS7_9monostateEblmdNS4_10shared_ptrINS0_5trace4SpanEEENSA_INSB_11SpanContextEEENSA_INS0_7baggage7BaggageEEEEEE' => 1,
                                                    '_ZN13opentelemetry2v17context7Context8DataListD2Ev' => 1,
                                                    '_ZN13opentelemetry2v17context7Context8SetValueENS0_5nostd11string_viewEN4absl7otel_v17variantIJNS6_9monostateEblmdNS3_10shared_ptrINS0_5trace4SpanEEENS9_INSA_11SpanContextEEENS9_INS0_7baggage7BaggageEEEEEE' => 1,
                                                    '_ZN13opentelemetry2v17context7ContextC2ENS0_5nostd11string_viewEN4absl7otel_v17variantIJNS6_9monostateEblmdNS3_10shared_ptrINS0_5trace4SpanEEENS9_INSA_11SpanContextEEENS9_INS0_7baggage7BaggageEEEEEE' => 1,
                                                    '_ZN17AbiTextMapCarrier3SetEN13opentelemetry2v15nostd11string_viewES3_' => 1,
                                                    '_ZN17AbiTextMapCarrierD0Ev' => 1,
                                                    '_ZN4absl7otel_v116variant_internal18VisitIndicesSwitchILm8EE3RunINS1_17VariantCoreAccess17CopyAssignVisitorINS1_31VariantCopyAssignBaseNontrivialIJNS0_9monostateEblmdN13opentelemetry2v15nostd10shared_ptrINSA_5trace4SpanEEENSC_INSD_11SpanContextEEENSC_INSA_7baggage7BaggageEEEEEEEEEENS1_22VisitIndicesResultImplIT_JmEE4typeEOSO_m' => 1,
                                                    '_ZN4absl7otel_v116variant_internal36VariantStateBaseDestructorNontrivialIJNS0_9monostateEblmdN13opentelemetry2v15nostd10shared_ptrINS5_5trace4SpanEEENS7_INS8_11SpanContextEEENS7_INS5_7baggage7BaggageEEEEED2Ev' => 1,
                                                    '_ZN4absl7otel_v17variantIJNS0_9monostateEblmdN13opentelemetry2v15nostd10shared_ptrINS4_5trace4SpanEEENS6_INS7_11SpanContextEEENS6_INS4_7baggage7BaggageEEEEEC2ERKSF_' => 1,
                                                    '_ZNK13opentelemetry2v15nostd10shared_ptrINS0_7baggage7BaggageEE18shared_ptr_wrapper3GetEv' => 1,
                                                    '_ZNK13opentelemetry2v15nostd10shared_ptrINS0_7baggage7BaggageEE18shared_ptr_wrapper6CopyToERNS5_15PlacementBufferE' => 1,
                                                    '_ZNK13opentelemetry2v15nostd10shared_ptrINS0_7context7Context8DataListEE18shared_ptr_wrapper3GetEv' => 1,
                                                    '_ZNK13opentelemetry2v15nostd10shared_ptrINS0_7context7Context8DataListEE18shared_ptr_wrapper6CopyToERNS6_15PlacementBufferE' => 1,
                                                    '_ZNK13opentelemetry2v17baggage11propagation17BaggagePropagator6FieldsENS0_5nostd12function_refIFbNS4_11string_viewEEEE' => 1,
                                                    '_ZNK13opentelemetry2v17context7Context8GetValueENS0_5nostd11string_viewE' => 1,
                                                    '_ZNK17AbiTextMapCarrier3GetEN13opentelemetry2v15nostd11string_viewE' => 1,
                                                    '_ZNK17AbiTextMapCarrier4KeysEN13opentelemetry2v15nostd12function_refIFbNS2_11string_viewEEEE' => 1,
                                                    '_ZNSt14__shared_countILN9__gnu_cxx12_Lock_policyE2EEC2IPN13opentelemetry2v17baggage7BaggageEEET_' => 1,
                                                    '_ZNSt14__shared_countILN9__gnu_cxx12_Lock_policyE2EEC2IPN13opentelemetry2v17context7Context8DataListEEET_' => 1,
                                                    '_ZNSt15_Sp_counted_ptrIPN13opentelemetry2v17baggage7BaggageELN9__gnu_cxx12_Lock_policyE2EE10_M_destroyEv' => 1,
                                                    '_ZNSt15_Sp_counted_ptrIPN13opentelemetry2v17baggage7BaggageELN9__gnu_cxx12_Lock_policyE2EE10_M_disposeEv' => 1,
                                                    '_ZNSt15_Sp_counted_ptrIPN13opentelemetry2v17baggage7BaggageELN9__gnu_cxx12_Lock_policyE2EE14_M_get_deleterERKSt9type_info' => 1,
                                                    '_ZNSt15_Sp_counted_ptrIPN13opentelemetry2v17baggage7BaggageELN9__gnu_cxx12_Lock_policyE2EED0Ev' => 1,
                                                    '_ZNSt15_Sp_counted_ptrIPN13opentelemetry2v17context7Context8DataListELN9__gnu_cxx12_Lock_policyE2EE10_M_destroyEv' => 1,
                                                    '_ZNSt15_Sp_counted_ptrIPN13opentelemetry2v17context7Context8DataListELN9__gnu_cxx12_Lock_policyE2EE10_M_disposeEv' => 1,
                                                    '_ZNSt15_Sp_counted_ptrIPN13opentelemetry2v17context7Context8DataListELN9__gnu_cxx12_Lock_policyE2EE14_M_get_deleterERKSt9type_info' => 1,
                                                    '_ZNSt15_Sp_counted_ptrIPN13opentelemetry2v17context7Context8DataListELN9__gnu_cxx12_Lock_policyE2EED0Ev' => 1,
                                                    '_ZNSt16_Sp_counted_baseILN9__gnu_cxx12_Lock_policyE2EE10_M_destroyEv' => 1,
                                                    '_ZNSt16_Sp_counted_baseILN9__gnu_cxx12_Lock_policyE2EE24_M_release_last_use_coldEv' => 1,
                                                    '_ZNSt16_Sp_counted_baseILN9__gnu_cxx12_Lock_policyE2EED0Ev' => 1,
                                                    '_ZNSt16_Sp_counted_baseILN9__gnu_cxx12_Lock_policyE2EED2Ev' => 1,
                                                    '_ZTI17AbiTextMapCarrier' => -24,
                                                    '_ZTIN13opentelemetry2v15nostd10shared_ptrINS0_7baggage7BaggageEE18shared_ptr_wrapperE' => -16,
                                                    '_ZTIN13opentelemetry2v15nostd10shared_ptrINS0_7context7Context8DataListEE18shared_ptr_wrapperE' => -16,
                                                    '_ZTIN13opentelemetry2v17baggage11propagation17BaggagePropagatorE' => -24,
                                                    '_ZTIN13opentelemetry2v17context11propagation14TextMapCarrierE' => -16,
                                                    '_ZTIN13opentelemetry2v17context11propagation17TextMapPropagatorE' => -16,
                                                    '_ZTISt11_Mutex_baseILN9__gnu_cxx12_Lock_policyE2EE' => -16,
                                                    '_ZTISt15_Sp_counted_ptrIPN13opentelemetry2v17baggage7BaggageELN9__gnu_cxx12_Lock_policyE2EE' => -24,
                                                    '_ZTISt15_Sp_counted_ptrIPN13opentelemetry2v17context7Context8DataListELN9__gnu_cxx12_Lock_policyE2EE' => -24,
                                                    '_ZTISt16_Sp_counted_baseILN9__gnu_cxx12_Lock_policyE2EE' => -24,
                                                    '_ZTS17AbiTextMapCarrier' => -20,
                                                    '_ZTSN13opentelemetry2v15nostd10shared_ptrINS0_7baggage7BaggageEE18shared_ptr_wrapperE' => -82,
                                                    '_ZTSN13opentelemetry2v15nostd10shared_ptrINS0_7context7Context8DataListEE18shared_ptr_wrapperE' => -91,
                                                    '_ZTSN13opentelemetry2v17baggage11propagation17BaggagePropagatorE' => -61,
                                                    '_ZTSN13opentelemetry2v17context11propagation14TextMapCarrierE' => -58,
                                                    '_ZTSN13opentelemetry2v17context11propagation17TextMapPropagatorE' => -61,
                                                    '_ZTSSt11_Mutex_baseILN9__gnu_cxx12_Lock_policyE2EE' => -47,
                                                    '_ZTSSt15_Sp_counted_ptrIPN13opentelemetry2v17baggage7BaggageELN9__gnu_cxx12_Lock_policyE2EE' => -88,
                                                    '_ZTSSt15_Sp_counted_ptrIPN13opentelemetry2v17context7Context8DataListELN9__gnu_cxx12_Lock_policyE2EE' => -97,
                                                    '_ZTSSt16_Sp_counted_baseILN9__gnu_cxx12_Lock_policyE2EE' => -52,
                                                    '_ZTV17AbiTextMapCarrier' => -56,
                                                    '_ZTVN13opentelemetry2v15nostd10shared_ptrINS0_7baggage7BaggageEE18shared_ptr_wrapperE' => -64,
                                                    '_ZTVN13opentelemetry2v15nostd10shared_ptrINS0_7context7Context8DataListEE18shared_ptr_wrapperE' => -64,
                                                    '_ZTVN13opentelemetry2v17baggage11propagation17BaggagePropagatorE' => -56,
                                                    '_ZTVSt15_Sp_counted_ptrIPN13opentelemetry2v17baggage7BaggageELN9__gnu_cxx12_Lock_policyE2EE' => -56,
                                                    '_ZTVSt15_Sp_counted_ptrIPN13opentelemetry2v17context7Context8DataListELN9__gnu_cxx12_Lock_policyE2EE' => -56,
                                                    '_ZTVSt16_Sp_counted_baseILN9__gnu_cxx12_Lock_policyE2EE' => -56,
                                                    '_ZZN13opentelemetry2v16common23KeyValueStringTokenizer20GetDefaultKeyOrValueEvE11default_strB5cxx11' => -32,
                                                    '_ZZN13opentelemetry2v17baggage10GetBaggageERKNS0_7context7ContextEE13empty_baggage' => -32,
                                                    '_ZZN13opentelemetry2v17baggage7Baggage10GetDefaultEvE7baggage' => -32,
                                                    '_ZZNK13opentelemetry2v17baggage7Baggage8ToHeaderB5cxx11EvENKUlNS0_5nostd11string_viewES4_E_clES4_S4_' => 1,
                                                    '_ZZZN13opentelemetry2v17baggage7Baggage9UrlEncodeB5cxx11ENS0_5nostd11string_viewEENKUlcE_clEcE3hex' => -8
                                                  }
                       },
          'Target' => 'unix',
          'TypeInfo' => {
                          '1' => {
                                   'Name' => 'void',
                                   'Type' => 'Intrinsic'
                                 },
                          '1198' => {
                                      'Header' => 'unique_ptr.h',
                                      'Line' => '40',
                                      'Memb' => {
                                                  '0' => {
                                                           'access' => 'private',
                                                           'name' => 'ptr_',
                                                           'offset' => '0',
                                                           'type' => '1228'
                                                         }
                                                },
                                      'Name' => 'opentelemetry::v1::nostd::unique_ptr<opentelemetry::v1::common::KeyValueProperties>',
                                      'NameSpace' => 'opentelemetry::v1::nostd',
                                      'Size' => '8',
                                      'TParam' => {
                                                    '0' => {
                                                             'key' => 'T',
                                                             'type' => '5819'
                                                           }
                                                  },
                                      'Type' => 'Class'
                                    },
                          '1228' => {
                                      'BaseType' => '23773',
                                      'Header' => 'unique_ptr.h',
                                      'Line' => '44',
                                      'Name' => 'opentelemetry::v1::nostd::unique_ptr<opentelemetry::v1::common::KeyValueProperties>::pointer',
                                      'NameSpace' => 'opentelemetry::v1::nostd::unique_ptr<opentelemetry::v1::common::KeyValueProperties>',
                                      'Private' => 1,
                                      'Size' => '8',
                                      'Type' => 'Typedef'
                                    },
                          '1239' => {
                                      'BaseType' => '2442',
                                      'Header' => 'unique_ptr.h',
                                      'Line' => '43',
                                      'Name' => 'opentelemetry::v1::nostd::unique_ptr<opentelemetry::v1::common::KeyValueProperties>::element_type',
                                      'NameSpace' => 'opentelemetry::v1::nostd::unique_ptr<opentelemetry::v1::common::KeyValueProperties>',
                                      'Private' => 1,
                                      'Size' => '24',
                                      'Type' => 'Typedef'
                                    },
                          '12512' => {
                                       'Copied' => 1,
                                       'Header' => 'char_traits.h',
                                       'Line' => '335',
                                       'Name' => 'struct std::char_traits<char>',
                                       'NameSpace' => 'std',
                                       'Size' => '1',
                                       'TParam' => {
                                                     '0' => {
                                                              'key' => '_CharT',
                                                              'type' => '21641'
                                                            }
                                                   },
                                       'Type' => 'Struct'
                                     },
                          '12924' => {
                                       'BaseType' => '21682',
                                       'Header' => 'c++config.h',
                                       'Line' => '2538',
                                       'Name' => 'std::size_t',
                                       'NameSpace' => 'std',
                                       'Size' => '8',
                                       'Type' => 'Typedef'
                                     },
                          '12936' => {
                                       'Base' => {
                                                   '13033' => {
                                                                'pos' => '0'
                                                              }
                                                 },
                                       'Copied' => 1,
                                       'Header' => 'allocator.h',
                                       'Line' => '262',
                                       'Name' => 'std::allocator<char>',
                                       'NameSpace' => 'std',
                                       'Size' => '1',
                                       'TParam' => {
                                                     '0' => {
                                                              'key' => undef,
                                                              'type' => '21641'
                                                            }
                                                   },
                                       'Type' => 'Class'
                                     },
                          '13033' => {
                                       'BaseType' => '13044',
                                       'Header' => 'c++allocator.h',
                                       'Line' => '47',
                                       'Name' => 'std::__allocator_base<char>',
                                       'NameSpace' => 'std',
                                       'Size' => '1',
                                       'TParam' => {
                                                     '0' => {
                                                              'name' => 'char'
                                                            }
                                                   },
                                       'Type' => 'Typedef'
                                     },
                          '13044' => {
                                       'Copied' => 1,
                                       'Header' => 'new_allocator.h',
                                       'Line' => '56',
                                       'Name' => 'std::__new_allocator<char>',
                                       'NameSpace' => 'std',
                                       'Size' => '1',
                                       'TParam' => {
                                                     '0' => {
                                                              'key' => '_Tp',
                                                              'type' => '21641'
                                                            }
                                                   },
                                       'Type' => 'Class'
                                     },
                          '13311' => {
                                       'Copied' => 1,
                                       'Header' => 'alloc_traits.h',
                                       'Line' => '411',
                                       'Name' => 'struct std::allocator_traits<std::allocator<char> >',
                                       'NameSpace' => 'std',
                                       'Size' => '1',
                                       'TParam' => {
                                                     '0' => {
                                                              'key' => '_Alloc',
                                                              'type' => '12936'
                                                            }
                                                   },
                                       'Type' => 'Struct'
                                     },
                          '13357' => {
                                       'BaseType' => '21719',
                                       'Header' => 'alloc_traits.h',
                                       'Line' => '420',
                                       'Name' => 'std::allocator_traits<std::allocator<char> >::pointer',
                                       'NameSpace' => 'std::allocator_traits<std::allocator<char> >',
                                       'Size' => '8',
                                       'Type' => 'Typedef'
                                     },
                          '13463' => {
                                       'BaseType' => '12924',
                                       'Header' => 'alloc_traits.h',
                                       'Line' => '435',
                                       'Name' => 'std::allocator_traits<std::allocator<char> >::size_type',
                                       'NameSpace' => 'std::allocator_traits<std::allocator<char> >',
                                       'Size' => '8',
                                       'Type' => 'Typedef'
                                     },
                          '13497' => {
                                       'BaseType' => '12936',
                                       'Header' => 'alloc_traits.h',
                                       'Line' => '450',
                                       'Name' => 'std::allocator_traits<std::allocator<char> >::rebind_alloc<char>',
                                       'NameSpace' => 'std::allocator_traits<std::allocator<char> >',
                                       'Size' => '1',
                                       'TParam' => {
                                                     '0' => {
                                                              'name' => 'char'
                                                            }
                                                   },
                                       'Type' => 'Typedef'
                                     },
                          '13692' => {
                                       'Base' => {
                                                   '13900' => {
                                                                'pos' => '0'
                                                              }
                                                 },
                                       'Header' => 'shared_ptr.h',
                                       'Line' => '175',
                                       'Name' => 'std::shared_ptr<opentelemetry::v1::baggage::Baggage>',
                                       'NameSpace' => 'std',
                                       'Size' => '16',
                                       'TParam' => {
                                                     '0' => {
                                                              'key' => '_Tp',
                                                              'type' => '82'
                                                            }
                                                   },
                                       'Type' => 'Class'
                                     },
                          '13900' => {
                                       'Base' => {
                                                   '14338' => {
                                                                'pos' => '0'
                                                              }
                                                 },
                                       'Header' => 'shared_ptr_base.h',
                                       'Line' => '1422',
                                       'Memb' => {
                                                   '0' => {
                                                            'access' => 'private',
                                                            'name' => '_M_ptr',
                                                            'offset' => '0',
                                                            'type' => '23862'
                                                          },
                                                   '1' => {
                                                            'access' => 'private',
                                                            'name' => '_M_refcount',
                                                            'offset' => '8',
                                                            'type' => '14492'
                                                          }
                                                 },
                                       'Name' => 'std::__shared_ptr<opentelemetry::v1::baggage::Baggage, 2(2)>',
                                       'NameSpace' => 'std',
                                       'Size' => '16',
                                       'TParam' => {
                                                     '0' => {
                                                              'key' => '_Tp',
                                                              'type' => '82'
                                                            },
                                                     '1' => {
                                                              'key' => '_Lp',
                                                              'type' => '22890',
                                                              'val' => '2 (2)'
                                                            }
                                                   },
                                       'Type' => 'Class'
                                     },
                          '13949' => {
                                       'BaseType' => '14479',
                                       'Header' => 'shared_ptr_base.h',
                                       'Line' => '1426',
                                       'Name' => 'std::__shared_ptr<opentelemetry::v1::baggage::Baggage, 2(2)>::element_type',
                                       'NameSpace' => 'std::__shared_ptr<opentelemetry::v1::baggage::Baggage, 2(2)>',
                                       'Private' => 1,
                                       'Size' => '8',
                                       'Type' => 'Typedef'
                                     },
                          '14338' => {
                                       'Copied' => 1,
                                       'Header' => 'shared_ptr_base.h',
                                       'Line' => '1341',
                                       'Name' => 'std::__shared_ptr_access<opentelemetry::v1::baggage::Baggage, 2(2), false, false>',
                                       'NameSpace' => 'std',
                                       'Size' => '1',
                                       'TParam' => {
                                                     '0' => {
                                                              'key' => '_Tp',
                                                              'type' => '82'
                                                            },
                                                     '1' => {
                                                              'key' => '_Lp',
                                                              'type' => '22890',
                                                              'val' => '2 (2)'
                                                            },
                                                     '2' => {
                                                              'key' => undef,
                                                              'type' => '21663',
                                                              'val' => '0'
                                                            },
                                                     '3' => {
                                                              'key' => undef,
                                                              'type' => '21663',
                                                              'val' => '0'
                                                            }
                                                   },
                                       'Type' => 'Class'
                                     },
                          '14460' => {
                                       'Header' => 'type_traits',
                                       'Line' => '2016',
                                       'Name' => 'struct std::remove_extent<opentelemetry::v1::baggage::Baggage>',
                                       'NameSpace' => 'std',
                                       'Size' => '1',
                                       'TParam' => {
                                                     '0' => {
                                                              'key' => '_Tp',
                                                              'type' => '82'
                                                            }
                                                   },
                                       'Type' => 'Struct'
                                     },
                          '14479' => {
                                       'BaseType' => '82',
                                       'Header' => 'type_traits',
                                       'Line' => '2017',
                                       'Name' => 'std::remove_extent<opentelemetry::v1::baggage::Baggage>::type',
                                       'NameSpace' => 'std::remove_extent<opentelemetry::v1::baggage::Baggage>',
                                       'Size' => '8',
                                       'Type' => 'Typedef'
                                     },
                          '14492' => {
                                       'Header' => 'shared_ptr_base.h',
                                       'Line' => '893',
                                       'Memb' => {
                                                   '0' => {
                                                            'access' => 'private',
                                                            'name' => '_M_pi',
                                                            'offset' => '0',
                                                            'type' => '23867'
                                                          }
                                                 },
                                       'Name' => 'std::__shared_count<2(2)>',
                                       'NameSpace' => 'std',
                                       'Size' => '8',
                                       'TParam' => {
                                                     '0' => {
                                                              'key' => '_Lp',
                                                              'type' => '22890',
                                                              'val' => '2 (2)'
                                                            }
                                                   },
                                       'Type' => 'Class'
                                     },
                          '14929' => {
                                       'Base' => {
                                                   '15333' => {
                                                                'pos' => '0'
                                                              }
                                                 },
                                       'Header' => 'shared_ptr_base.h',
                                       'Line' => '125',
                                       'Memb' => {
                                                   '0' => {
                                                            'access' => 'private',
                                                            'name' => '_vptr$_Sp_counted_base',
                                                            'offset' => '0',
                                                            'type' => '23872'
                                                          },
                                                   '1' => {
                                                            'access' => 'private',
                                                            'name' => '_M_use_count',
                                                            'offset' => '8',
                                                            'type' => '23891'
                                                          },
                                                   '2' => {
                                                            'access' => 'private',
                                                            'name' => '_M_weak_count',
                                                            'offset' => '18',
                                                            'type' => '23891'
                                                          }
                                                 },
                                       'Name' => 'std::_Sp_counted_base<2(2)>',
                                       'NameSpace' => 'std',
                                       'Size' => '16',
                                       'TParam' => {
                                                     '0' => {
                                                              'key' => '_Lp',
                                                              'type' => '22890',
                                                              'val' => '2 (2)'
                                                            }
                                                   },
                                       'Type' => 'Class'
                                     },
                          '15333' => {
                                       'Copied' => 1,
                                       'Header' => 'shared_ptr_base.h',
                                       'Line' => '106',
                                       'Name' => 'std::_Mutex_base<2(2)>',
                                       'NameSpace' => 'std',
                                       'Size' => '1',
                                       'TParam' => {
                                                     '0' => {
                                                              'key' => '_Lp',
                                                              'type' => '22890',
                                                              'val' => '2 (2)'
                                                            }
                                                   },
                                       'Type' => 'Class'
                                     },
                          '15353' => {
                                       'Copied' => 1,
                                       'Name' => 'std::type_info',
                                       'NameSpace' => 'std',
                                       'Type' => 'Class'
                                     },
                          '1585' => {
                                      'Header' => 'unique_ptr.h',
                                      'Line' => '40',
                                      'Memb' => {
                                                  '0' => {
                                                           'access' => 'private',
                                                           'name' => 'ptr_',
                                                           'offset' => '0',
                                                           'type' => '1615'
                                                         }
                                                },
                                      'Name' => 'opentelemetry::v1::nostd::unique_ptr<opentelemetry::v1::common::KeyValueProperties::Entry[]>',
                                      'NameSpace' => 'opentelemetry::v1::nostd',
                                      'Size' => '8',
                                      'TParam' => {
                                                    '0' => {
                                                             'key' => 'T',
                                                             'type' => '23533'
                                                           }
                                                  },
                                      'Type' => 'Class'
                                    },
                          '1615' => {
                                      'BaseType' => '23650',
                                      'Header' => 'unique_ptr.h',
                                      'Line' => '44',
                                      'Name' => 'opentelemetry::v1::nostd::unique_ptr<opentelemetry::v1::common::KeyValueProperties::Entry[]>::pointer',
                                      'NameSpace' => 'opentelemetry::v1::nostd::unique_ptr<opentelemetry::v1::common::KeyValueProperties::Entry[]>',
                                      'Private' => 1,
                                      'Size' => '8',
                                      'Type' => 'Typedef'
                                    },
                          '1626' => {
                                      'BaseType' => '2412',
                                      'Header' => 'unique_ptr.h',
                                      'Line' => '43',
                                      'Name' => 'opentelemetry::v1::nostd::unique_ptr<opentelemetry::v1::common::KeyValueProperties::Entry[]>::element_type',
                                      'NameSpace' => 'opentelemetry::v1::nostd::unique_ptr<opentelemetry::v1::common::KeyValueProperties::Entry[]>',
                                      'Private' => 1,
                                      'Size' => '16',
                                      'Type' => 'Typedef'
                                    },
                          '16913' => {
                                       'Header' => 'type_traits',
                                       'Line' => '2260',
                                       'Name' => 'struct std::conditional<false, absl::otel_v1::variant_internal::VariantMoveAssignBaseNontrivial<absl::otel_v1::monostate>, absl::otel_v1::variant_internal::VariantCopyAssignBaseNontrivial<absl::otel_v1::monostate> >',
                                       'NameSpace' => 'std',
                                       'Size' => '1',
                                       'TParam' => {
                                                     '0' => {
                                                              'key' => '_Cond',
                                                              'type' => '21663',
                                                              'val' => '0'
                                                            },
                                                     '1' => {
                                                              'key' => '_Iftrue',
                                                              'type' => '26968'
                                                            },
                                                     '2' => {
                                                              'key' => '_Iffalse',
                                                              'type' => '30421'
                                                            }
                                                   },
                                       'Type' => 'Struct'
                                     },
                          '16951' => {
                                       'BaseType' => '30421',
                                       'Header' => 'type_traits',
                                       'Line' => '2261',
                                       'Name' => 'std::conditional<false, absl::otel_v1::variant_internal::VariantMoveAssignBaseNontrivial<absl::otel_v1::monostate>, absl::otel_v1::variant_internal::VariantCopyAssignBaseNontrivial<absl::otel_v1::monostate> >::type',
                                       'NameSpace' => 'std::conditional<false, absl::otel_v1::variant_internal::VariantMoveAssignBaseNontrivial<absl::otel_v1::monostate>, absl::otel_v1::variant_internal::VariantCopyAssignBaseNontrivial<absl::otel_v1::monostate> >',
                                       'Size' => '40',
                                       'Type' => 'Typedef'
                                     },
                          '16964' => {
                                       'Header' => 'type_traits',
                                       'Line' => '2260',
                                       'Name' => 'struct std::conditional<false, absl::otel_v1::variant_internal::VariantMoveBaseNontrivial<absl::otel_v1::monostate>, absl::otel_v1::variant_internal::VariantCopyBaseNontrivial<absl::otel_v1::monostate> >',
                                       'NameSpace' => 'std',
                                       'Size' => '1',
                                       'TParam' => {
                                                     '0' => {
                                                              'key' => '_Cond',
                                                              'type' => '21663',
                                                              'val' => '0'
                                                            },
                                                     '1' => {
                                                              'key' => '_Iftrue',
                                                              'type' => '27179'
                                                            },
                                                     '2' => {
                                                              'key' => '_Iffalse',
                                                              'type' => '30084'
                                                            }
                                                   },
                                       'Type' => 'Struct'
                                     },
                          '17002' => {
                                       'BaseType' => '30084',
                                       'Header' => 'type_traits',
                                       'Line' => '2261',
                                       'Name' => 'std::conditional<false, absl::otel_v1::variant_internal::VariantMoveBaseNontrivial<absl::otel_v1::monostate>, absl::otel_v1::variant_internal::VariantCopyBaseNontrivial<absl::otel_v1::monostate> >::type',
                                       'NameSpace' => 'std::conditional<false, absl::otel_v1::variant_internal::VariantMoveBaseNontrivial<absl::otel_v1::monostate>, absl::otel_v1::variant_internal::VariantCopyBaseNontrivial<absl::otel_v1::monostate> >',
                                       'Size' => '40',
                                       'Type' => 'Typedef'
                                     },
                          '17015' => {
                                       'Header' => 'type_traits',
                                       'Line' => '2260',
                                       'Name' => 'struct std::conditional<false, absl::otel_v1::variant_internal::VariantStateBase<absl::otel_v1::monostate, bool>, absl::otel_v1::variant_internal::VariantStateBaseDestructorNontrivial<absl::otel_v1::monostate> >',
                                       'NameSpace' => 'std',
                                       'Size' => '1',
                                       'TParam' => {
                                                     '0' => {
                                                              'key' => '_Cond',
                                                              'type' => '21663',
                                                              'val' => '0'
                                                            },
                                                     '1' => {
                                                              'key' => '_Iftrue',
                                                              'type' => '27408'
                                                            },
                                                     '2' => {
                                                              'key' => '_Iffalse',
                                                              'type' => '29786'
                                                            }
                                                   },
                                       'Type' => 'Struct'
                                     },
                          '17053' => {
                                       'BaseType' => '29786',
                                       'Header' => 'type_traits',
                                       'Line' => '2261',
                                       'Name' => 'std::conditional<false, absl::otel_v1::variant_internal::VariantStateBase<absl::otel_v1::monostate, bool>, absl::otel_v1::variant_internal::VariantStateBaseDestructorNontrivial<absl::otel_v1::monostate> >::type',
                                       'NameSpace' => 'std::conditional<false, absl::otel_v1::variant_internal::VariantStateBase<absl::otel_v1::monostate, bool>, absl::otel_v1::variant_internal::VariantStateBaseDestructorNontrivial<absl::otel_v1::monostate> >',
                                       'Size' => '40',
                                       'Type' => 'Typedef'
                                     },
                          '17066' => {
                                       'Header' => 'type_traits',
                                       'Line' => '2260',
                                       'Name' => 'struct std::conditional<false, absl::otel_v1::variant_internal::Union<absl::otel_v1::monostate>, absl::otel_v1::variant_internal::DestructibleUnionImpl<absl::otel_v1::monostate> >',
                                       'NameSpace' => 'std',
                                       'Size' => '1',
                                       'TParam' => {
                                                     '0' => {
                                                              'key' => '_Cond',
                                                              'type' => '21663',
                                                              'val' => '0'
                                                            },
                                                     '1' => {
                                                              'key' => '_Iftrue',
                                                              'type' => '27629'
                                                            },
                                                     '2' => {
                                                              'key' => '_Iffalse',
                                                              'type' => '28474'
                                                            }
                                                   },
                                       'Type' => 'Struct'
                                     },
                          '17104' => {
                                       'BaseType' => '28474',
                                       'Header' => 'type_traits',
                                       'Line' => '2261',
                                       'Name' => 'std::conditional<false, absl::otel_v1::variant_internal::Union<absl::otel_v1::monostate>, absl::otel_v1::variant_internal::DestructibleUnionImpl<absl::otel_v1::monostate> >::type',
                                       'NameSpace' => 'std::conditional<false, absl::otel_v1::variant_internal::Union<absl::otel_v1::monostate>, absl::otel_v1::variant_internal::DestructibleUnionImpl<absl::otel_v1::monostate> >',
                                       'Size' => '32',
                                       'Type' => 'Typedef'
                                     },
                          '17117' => {
                                       'Header' => 'type_traits',
                                       'Line' => '2260',
                                       'Name' => 'struct std::conditional<false, absl::otel_v1::variant_internal::VariantStateBaseDestructorNontrivial<absl::otel_v1::monostate>, absl::otel_v1::variant_internal::VariantMoveBaseNontrivial<absl::otel_v1::monostate> >',
                                       'NameSpace' => 'std',
                                       'Size' => '1',
                                       'TParam' => {
                                                     '0' => {
                                                              'key' => '_Cond',
                                                              'type' => '21663',
                                                              'val' => '0'
                                                            },
                                                     '1' => {
                                                              'key' => '_Iftrue',
                                                              'type' => '29786'
                                                            },
                                                     '2' => {
                                                              'key' => '_Iffalse',
                                                              'type' => '27179'
                                                            }
                                                   },
                                       'Type' => 'Struct'
                                     },
                          '17155' => {
                                       'BaseType' => '27179',
                                       'Header' => 'type_traits',
                                       'Line' => '2261',
                                       'Name' => 'std::conditional<false, absl::otel_v1::variant_internal::VariantStateBaseDestructorNontrivial<absl::otel_v1::monostate>, absl::otel_v1::variant_internal::VariantMoveBaseNontrivial<absl::otel_v1::monostate> >::type',
                                       'NameSpace' => 'std::conditional<false, absl::otel_v1::variant_internal::VariantStateBaseDestructorNontrivial<absl::otel_v1::monostate>, absl::otel_v1::variant_internal::VariantMoveBaseNontrivial<absl::otel_v1::monostate> >',
                                       'Size' => '40',
                                       'Type' => 'Typedef'
                                     },
                          '17168' => {
                                       'Header' => 'type_traits',
                                       'Line' => '2260',
                                       'Name' => 'struct std::conditional<false, absl::otel_v1::variant_internal::VariantCopyBaseNontrivial<absl::otel_v1::monostate>, absl::otel_v1::variant_internal::VariantMoveAssignBaseNontrivial<absl::otel_v1::monostate> >',
                                       'NameSpace' => 'std',
                                       'Size' => '1',
                                       'TParam' => {
                                                     '0' => {
                                                              'key' => '_Cond',
                                                              'type' => '21663',
                                                              'val' => '0'
                                                            },
                                                     '1' => {
                                                              'key' => '_Iftrue',
                                                              'type' => '30084'
                                                            },
                                                     '2' => {
                                                              'key' => '_Iffalse',
                                                              'type' => '26968'
                                                            }
                                                   },
                                       'Type' => 'Struct'
                                     },
                          '17206' => {
                                       'BaseType' => '26968',
                                       'Header' => 'type_traits',
                                       'Line' => '2261',
                                       'Name' => 'std::conditional<false, absl::otel_v1::variant_internal::VariantCopyBaseNontrivial<absl::otel_v1::monostate>, absl::otel_v1::variant_internal::VariantMoveAssignBaseNontrivial<absl::otel_v1::monostate> >::type',
                                       'NameSpace' => 'std::conditional<false, absl::otel_v1::variant_internal::VariantCopyBaseNontrivial<absl::otel_v1::monostate>, absl::otel_v1::variant_internal::VariantMoveAssignBaseNontrivial<absl::otel_v1::monostate> >',
                                       'Size' => '40',
                                       'Type' => 'Typedef'
                                     },
                          '17219' => {
                                       'Base' => {
                                                   '17427' => {
                                                                'pos' => '0'
                                                              }
                                                 },
                                       'Header' => 'shared_ptr.h',
                                       'Line' => '175',
                                       'Name' => 'std::shared_ptr<opentelemetry::v1::context::Context::DataList>',
                                       'NameSpace' => 'std',
                                       'Size' => '16',
                                       'TParam' => {
                                                     '0' => {
                                                              'key' => '_Tp',
                                                              'type' => '6759'
                                                            }
                                                   },
                                       'Type' => 'Class'
                                     },
                          '17427' => {
                                       'Base' => {
                                                   '17865' => {
                                                                'pos' => '0'
                                                              }
                                                 },
                                       'Header' => 'shared_ptr_base.h',
                                       'Line' => '1422',
                                       'Memb' => {
                                                   '0' => {
                                                            'access' => 'private',
                                                            'name' => '_M_ptr',
                                                            'offset' => '0',
                                                            'type' => '35678'
                                                          },
                                                   '1' => {
                                                            'access' => 'private',
                                                            'name' => '_M_refcount',
                                                            'offset' => '8',
                                                            'type' => '14492'
                                                          }
                                                 },
                                       'Name' => 'std::__shared_ptr<opentelemetry::v1::context::Context::DataList, 2(2)>',
                                       'NameSpace' => 'std',
                                       'Size' => '16',
                                       'TParam' => {
                                                     '0' => {
                                                              'key' => '_Tp',
                                                              'type' => '6759'
                                                            },
                                                     '1' => {
                                                              'key' => '_Lp',
                                                              'type' => '22890',
                                                              'val' => '2 (2)'
                                                            }
                                                   },
                                       'Type' => 'Class'
                                     },
                          '17476' => {
                                       'BaseType' => '18006',
                                       'Header' => 'shared_ptr_base.h',
                                       'Line' => '1426',
                                       'Name' => 'std::__shared_ptr<opentelemetry::v1::context::Context::DataList, 2(2)>::element_type',
                                       'NameSpace' => 'std::__shared_ptr<opentelemetry::v1::context::Context::DataList, 2(2)>',
                                       'Private' => 1,
                                       'Size' => '88',
                                       'Type' => 'Typedef'
                                     },
                          '17865' => {
                                       'Copied' => 1,
                                       'Header' => 'shared_ptr_base.h',
                                       'Line' => '1341',
                                       'Name' => 'std::__shared_ptr_access<opentelemetry::v1::context::Context::DataList, 2(2), false, false>',
                                       'NameSpace' => 'std',
                                       'Size' => '1',
                                       'TParam' => {
                                                     '0' => {
                                                              'key' => '_Tp',
                                                              'type' => '6759'
                                                            },
                                                     '1' => {
                                                              'key' => '_Lp',
                                                              'type' => '22890',
                                                              'val' => '2 (2)'
                                                            },
                                                     '2' => {
                                                              'key' => undef,
                                                              'type' => '21663',
                                                              'val' => '0'
                                                            },
                                                     '3' => {
                                                              'key' => undef,
                                                              'type' => '21663',
                                                              'val' => '0'
                                                            }
                                                   },
                                       'Type' => 'Class'
                                     },
                          '17987' => {
                                       'Header' => 'type_traits',
                                       'Line' => '2016',
                                       'Name' => 'struct std::remove_extent<opentelemetry::v1::context::Context::DataList>',
                                       'NameSpace' => 'std',
                                       'Size' => '1',
                                       'TParam' => {
                                                     '0' => {
                                                              'key' => '_Tp',
                                                              'type' => '6759'
                                                            }
                                                   },
                                       'Type' => 'Struct'
                                     },
                          '18006' => {
                                       'BaseType' => '6759',
                                       'Header' => 'type_traits',
                                       'Line' => '2017',
                                       'Name' => 'std::remove_extent<opentelemetry::v1::context::Context::DataList>::type',
                                       'NameSpace' => 'std::remove_extent<opentelemetry::v1::context::Context::DataList>',
                                       'Size' => '88',
                                       'Type' => 'Typedef'
                                     },
                          '18034' => {
                                       'Base' => {
                                                   '14929' => {
                                                                'pos' => '0'
                                                              }
                                                 },
                                       'Header' => 'shared_ptr_base.h',
                                       'Line' => '419',
                                       'Memb' => {
                                                   '0' => {
                                                            'access' => 'private',
                                                            'name' => '_M_ptr',
                                                            'offset' => '22',
                                                            'type' => '23808'
                                                          }
                                                 },
                                       'Name' => 'std::_Sp_counted_ptr<opentelemetry::v1::baggage::Baggage*, 2(2)>',
                                       'NameSpace' => 'std',
                                       'Size' => '24',
                                       'TParam' => {
                                                     '0' => {
                                                              'key' => '_Ptr',
                                                              'type' => '23808'
                                                            },
                                                     '1' => {
                                                              'key' => '_Lp',
                                                              'type' => '22890',
                                                              'val' => '2 (2)'
                                                            }
                                                   },
                                       'Type' => 'Class'
                                     },
                          '18291' => {
                                       'Base' => {
                                                   '14929' => {
                                                                'pos' => '0'
                                                              }
                                                 },
                                       'Header' => 'shared_ptr_base.h',
                                       'Line' => '419',
                                       'Memb' => {
                                                   '0' => {
                                                            'access' => 'private',
                                                            'name' => '_M_ptr',
                                                            'offset' => '22',
                                                            'type' => '35623'
                                                          }
                                                 },
                                       'Name' => 'std::_Sp_counted_ptr<opentelemetry::v1::context::Context::DataList*, 2(2)>',
                                       'NameSpace' => 'std',
                                       'Size' => '24',
                                       'TParam' => {
                                                     '0' => {
                                                              'key' => '_Ptr',
                                                              'type' => '35623'
                                                            },
                                                     '1' => {
                                                              'key' => '_Lp',
                                                              'type' => '22890',
                                                              'val' => '2 (2)'
                                                            }
                                                   },
                                       'Type' => 'Class'
                                     },
                          '18617' => {
                                       'Copied' => 1,
                                       'Name' => 'std::exception',
                                       'NameSpace' => 'std',
                                       'Type' => 'Class'
                                     },
                          '1972' => {
                                      'Header' => 'unique_ptr.h',
                                      'Line' => '40',
                                      'Memb' => {
                                                  '0' => {
                                                           'access' => 'private',
                                                           'name' => 'ptr_',
                                                           'offset' => '0',
                                                           'type' => '2002'
                                                         }
                                                },
                                      'Name' => 'opentelemetry::v1::nostd::unique_ptr<char[] const>',
                                      'NameSpace' => 'opentelemetry::v1::nostd',
                                      'Size' => '8',
                                      'TParam' => {
                                                    '0' => {
                                                             'key' => 'T',
                                                             'type' => '23544'
                                                           }
                                                  },
                                      'Type' => 'Class'
                                    },
                          '2002' => {
                                      'BaseType' => '23560',
                                      'Header' => 'unique_ptr.h',
                                      'Line' => '44',
                                      'Name' => 'opentelemetry::v1::nostd::unique_ptr<char[] const>::pointer',
                                      'NameSpace' => 'opentelemetry::v1::nostd::unique_ptr<char[] const>',
                                      'Private' => 1,
                                      'Size' => '8',
                                      'Type' => 'Typedef'
                                    },
                          '2013' => {
                                      'BaseType' => '2382',
                                      'Header' => 'unique_ptr.h',
                                      'Line' => '43',
                                      'Name' => 'opentelemetry::v1::nostd::unique_ptr<char[] const>::element_type',
                                      'NameSpace' => 'opentelemetry::v1::nostd::unique_ptr<char[] const>',
                                      'Private' => 1,
                                      'Size' => '1',
                                      'Type' => 'Typedef'
                                    },
                          '20657' => {
                                       'Header' => 'type_traits',
                                       'Line' => '262',
                                       'Name' => 'struct std::__success_type<void>',
                                       'NameSpace' => 'std',
                                       'Size' => '1',
                                       'TParam' => {
                                                     '0' => {
                                                              'key' => '_Tp',
                                                              'type' => '1'
                                                            }
                                                   },
                                       'Type' => 'Struct'
                                     },
                          '20672' => {
                                       'BaseType' => '1',
                                       'Header' => 'type_traits',
                                       'Line' => '263',
                                       'Name' => 'std::__success_type<void>::type',
                                       'NameSpace' => 'std::__success_type<void>',
                                       'Type' => 'Typedef'
                                     },
                          '21641' => {
                                       'Name' => 'char',
                                       'Size' => '1',
                                       'Type' => 'Intrinsic'
                                     },
                          '21663' => {
                                       'Name' => 'bool',
                                       'Size' => '1',
                                       'Type' => 'Intrinsic'
                                     },
                          '21670' => {
                                       'Name' => 'int',
                                       'Size' => '4',
                                       'Type' => 'Intrinsic'
                                     },
                          '21682' => {
                                       'Name' => 'unsigned long',
                                       'Size' => '8',
                                       'Type' => 'Intrinsic'
                                     },
                          '21719' => {
                                       'BaseType' => '21641',
                                       'Name' => 'char*',
                                       'Size' => '8',
                                       'Type' => 'Pointer'
                                     },
                          '21734' => {
                                       'BaseType' => '21739',
                                       'Name' => 'char const*',
                                       'Size' => '8',
                                       'Type' => 'Pointer'
                                     },
                          '21739' => {
                                       'BaseType' => '21641',
                                       'Name' => 'char const',
                                       'Size' => '1',
                                       'Type' => 'Const'
                                     },
                          '21796' => {
                                       'Base' => {
                                                   '13311' => {
                                                                'pos' => '0'
                                                              }
                                                 },
                                       'Copied' => 1,
                                       'Header' => 'alloc_traits.h',
                                       'Line' => '48',
                                       'Name' => 'struct __gnu_cxx::__alloc_traits<std::allocator<char>, char>',
                                       'NameSpace' => '__gnu_cxx',
                                       'Size' => '1',
                                       'TParam' => {
                                                     '0' => {
                                                              'key' => '_Alloc',
                                                              'type' => '12936'
                                                            },
                                                     '1' => {
                                                              'key' => undef,
                                                              'type' => '21641'
                                                            }
                                                   },
                                       'Type' => 'Struct'
                                     },
                          '21943' => {
                                       'BaseType' => '13463',
                                       'Header' => 'alloc_traits.h',
                                       'Line' => '59',
                                       'Name' => '__gnu_cxx::__alloc_traits<std::allocator<char>, char>::size_type',
                                       'NameSpace' => '__gnu_cxx::__alloc_traits<std::allocator<char>, char>',
                                       'Size' => '8',
                                       'Type' => 'Typedef'
                                     },
                          '21954' => {
                                       'Header' => 'alloc_traits.h',
                                       'Line' => '119',
                                       'Name' => 'struct __gnu_cxx::__alloc_traits<std::allocator<char>, char>::rebind<char>',
                                       'NameSpace' => '__gnu_cxx::__alloc_traits<std::allocator<char>, char>',
                                       'Size' => '1',
                                       'TParam' => {
                                                     '0' => {
                                                              'key' => '_Tp',
                                                              'type' => '21641'
                                                            }
                                                   },
                                       'Type' => 'Struct'
                                     },
                          '21972' => {
                                       'BaseType' => '13497',
                                       'Header' => 'alloc_traits.h',
                                       'Line' => '120',
                                       'Name' => '__gnu_cxx::__alloc_traits<std::allocator<char>, char>::rebind<char>::other',
                                       'NameSpace' => '__gnu_cxx::__alloc_traits<std::allocator<char>, char>::rebind<char>',
                                       'Size' => '1',
                                       'Type' => 'Typedef'
                                     },
                          '21984' => {
                                       'BaseType' => '13357',
                                       'Header' => 'alloc_traits.h',
                                       'Line' => '57',
                                       'Name' => '__gnu_cxx::__alloc_traits<std::allocator<char>, char>::pointer',
                                       'NameSpace' => '__gnu_cxx::__alloc_traits<std::allocator<char>, char>',
                                       'Size' => '8',
                                       'Type' => 'Typedef'
                                     },
                          '22890' => {
                                       'Header' => 'concurrence.h',
                                       'Line' => '49',
                                       'Memb' => {
                                                   '0' => {
                                                            'name' => '_S_single',
                                                            'value' => '0'
                                                          },
                                                   '1' => {
                                                            'name' => '_S_mutex',
                                                            'value' => '1'
                                                          },
                                                   '2' => {
                                                            'name' => '_S_atomic',
                                                            'value' => '2'
                                                          }
                                                 },
                                       'Name' => 'enum __gnu_cxx::_Lock_policy',
                                       'NameSpace' => '__gnu_cxx',
                                       'Size' => '4',
                                       'Type' => 'Enum'
                                     },
                          '23366' => {
                                       'BaseType' => '21641',
                                       'Name' => 'char[]',
                                       'Size' => '8',
                                       'Type' => 'Array'
                                     },
                          '23522' => {
                                       'BaseType' => '21682',
                                       'Header' => 'stddef.h',
                                       'Line' => '46',
                                       'Name' => 'size_t',
                                       'Size' => '8',
                                       'Type' => 'Typedef'
                                     },
                          '23533' => {
                                       'BaseType' => '5867',
                                       'Name' => 'opentelemetry::v1::common::KeyValueProperties::Entry[]',
                                       'Size' => '8',
                                       'Type' => 'Array'
                                     },
                          '23544' => {
                                       'BaseType' => '23366',
                                       'Name' => 'char[] const',
                                       'Size' => '8',
                                       'Type' => 'Const'
                                     },
                          '23560' => {
                                       'BaseType' => '2013',
                                       'Name' => 'opentelemetry::v1::nostd::unique_ptr<char[] const>::element_type*',
                                       'Size' => '8',
                                       'Type' => 'Pointer'
                                     },
                          '2364' => {
                                      'Header' => 'unique_ptr.h',
                                      'Line' => '28',
                                      'Name' => 'struct opentelemetry::v1::nostd::detail::unique_ptr_element_type<char[] const>',
                                      'NameSpace' => 'opentelemetry::v1::nostd::detail',
                                      'Size' => '1',
                                      'TParam' => {
                                                    '0' => {
                                                             'key' => 'T',
                                                             'type' => '23544'
                                                           }
                                                  },
                                      'Type' => 'Struct'
                                    },
                          '23640' => {
                                       'BaseType' => '2455',
                                       'Name' => 'opentelemetry::v1::nostd::string_view const',
                                       'Size' => '16',
                                       'Type' => 'Const'
                                     },
                          '23650' => {
                                       'BaseType' => '1626',
                                       'Name' => 'opentelemetry::v1::nostd::unique_ptr<opentelemetry::v1::common::KeyValueProperties::Entry[]>::element_type*',
                                       'Size' => '8',
                                       'Type' => 'Pointer'
                                     },
                          '23685' => {
                                       'BaseType' => '5819',
                                       'Name' => 'opentelemetry::v1::common::KeyValueProperties*',
                                       'Size' => '8',
                                       'Type' => 'Pointer'
                                     },
                          '23716' => {
                                       'BaseType' => '1',
                                       'Name' => 'void*',
                                       'Size' => '8',
                                       'Type' => 'Pointer'
                                     },
                          '23768' => {
                                       'BaseType' => '7269',
                                       'Name' => 'std::string&',
                                       'Size' => '8',
                                       'Type' => 'Ref'
                                     },
                          '23773' => {
                                       'BaseType' => '1239',
                                       'Name' => 'opentelemetry::v1::nostd::unique_ptr<opentelemetry::v1::common::KeyValueProperties>::element_type*',
                                       'Size' => '8',
                                       'Type' => 'Pointer'
                                     },
                          '23778' => {
                                       'BaseType' => '1198',
                                       'Name' => 'opentelemetry::v1::nostd::unique_ptr<opentelemetry::v1::common::KeyValueProperties>*',
                                       'Size' => '8',
                                       'Type' => 'Pointer'
                                     },
                          '23808' => {
                                       'BaseType' => '82',
                                       'Name' => 'opentelemetry::v1::baggage::Baggage*',
                                       'Size' => '8',
                                       'Type' => 'Pointer'
                                     },
                          '2382' => {
                                      'BaseType' => '21739',
                                      'Header' => 'unique_ptr.h',
                                      'Line' => '30',
                                      'Name' => 'opentelemetry::v1::nostd::detail::unique_ptr_element_type<char[] const>::type',
                                      'NameSpace' => 'opentelemetry::v1::nostd::detail::unique_ptr_element_type<char[] const>',
                                      'Size' => '1',
                                      'Type' => 'Typedef'
                                    },
                          '23825' => {
                                       'BaseType' => '3332',
                                       'Name' => 'opentelemetry::v1::nostd::shared_ptr<opentelemetry::v1::baggage::Baggage>*',
                                       'Size' => '8',
                                       'Type' => 'Pointer'
                                     },
                          '23830' => {
                                       'BaseType' => '3454',
                                       'Name' => 'opentelemetry::v1::nostd::shared_ptr<opentelemetry::v1::baggage::Baggage>::element_type*',
                                       'Size' => '8',
                                       'Type' => 'Pointer'
                                     },
                          '23862' => {
                                       'BaseType' => '13949',
                                       'Name' => 'std::__shared_ptr<opentelemetry::v1::baggage::Baggage, 2(2)>::element_type*',
                                       'Size' => '8',
                                       'Type' => 'Pointer'
                                     },
                          '23867' => {
                                       'BaseType' => '14929',
                                       'Name' => 'std::_Sp_counted_base<2(2)>*',
                                       'Size' => '8',
                                       'Type' => 'Pointer'
                                     },
                          '23872' => {
                                       'BaseType' => '23877',
                                       'Name' => 'int(**)()',
                                       'Size' => '8',
                                       'Type' => 'Pointer'
                                     },
                          '23877' => {
                                       'Name' => 'int(*)()',
                                       'Return' => '21670',
                                       'Size' => '8',
                                       'Type' => 'FuncPtr'
                                     },
                          '23891' => {
                                       'BaseType' => '21670',
                                       'Header' => 'atomic_word.h',
                                       'Line' => '32',
                                       'Name' => '_Atomic_word',
                                       'Size' => '4',
                                       'Type' => 'Typedef'
                                     },
                          '23907' => {
                                       'BaseType' => '23912',
                                       'Name' => 'std::type_info const&',
                                       'Size' => '8',
                                       'Type' => 'Ref'
                                     },
                          '23912' => {
                                       'BaseType' => '15353',
                                       'Name' => 'std::type_info const',
                                       'Type' => 'Const'
                                     },
                          '23937' => {
                                       'BaseType' => '14492',
                                       'Name' => 'std::__shared_count<2(2)>*',
                                       'Size' => '8',
                                       'Type' => 'Pointer'
                                     },
                          '2394' => {
                                      'Header' => 'unique_ptr.h',
                                      'Line' => '28',
                                      'Name' => 'struct opentelemetry::v1::nostd::detail::unique_ptr_element_type<opentelemetry::v1::common::KeyValueProperties::Entry[]>',
                                      'NameSpace' => 'opentelemetry::v1::nostd::detail',
                                      'Size' => '1',
                                      'TParam' => {
                                                    '0' => {
                                                             'key' => 'T',
                                                             'type' => '23533'
                                                           }
                                                  },
                                      'Type' => 'Struct'
                                    },
                          '24097' => {
                                       'BaseType' => '3787',
                                       'Name' => 'opentelemetry::v1::nostd::shared_ptr<opentelemetry::v1::baggage::Baggage>::shared_ptr_wrapper*',
                                       'Size' => '8',
                                       'Type' => 'Pointer'
                                     },
                          '24102' => {
                                       'BaseType' => '24107',
                                       'Name' => 'opentelemetry::v1::nostd::shared_ptr<opentelemetry::v1::baggage::Baggage>::shared_ptr_wrapper const*',
                                       'Size' => '8',
                                       'Type' => 'Pointer'
                                     },
                          '24107' => {
                                       'BaseType' => '3787',
                                       'Name' => 'opentelemetry::v1::nostd::shared_ptr<opentelemetry::v1::baggage::Baggage>::shared_ptr_wrapper const',
                                       'Size' => '24',
                                       'Type' => 'Const'
                                     },
                          '24112' => {
                                       'BaseType' => '3387',
                                       'Name' => 'struct opentelemetry::v1::nostd::shared_ptr<opentelemetry::v1::baggage::Baggage>::PlacementBuffer&',
                                       'Size' => '8',
                                       'Type' => 'Ref'
                                     },
                          '2412' => {
                                      'BaseType' => '5867',
                                      'Header' => 'unique_ptr.h',
                                      'Line' => '30',
                                      'Name' => 'opentelemetry::v1::nostd::detail::unique_ptr_element_type<opentelemetry::v1::common::KeyValueProperties::Entry[]>::type',
                                      'NameSpace' => 'opentelemetry::v1::nostd::detail::unique_ptr_element_type<opentelemetry::v1::common::KeyValueProperties::Entry[]>',
                                      'Size' => '16',
                                      'Type' => 'Typedef'
                                    },
                          '24137' => {
                                       'BaseType' => '21663',
                                       'Name' => 'bool&',
                                       'Size' => '8',
                                       'Type' => 'Ref'
                                     },
                          '2424' => {
                                      'Header' => 'unique_ptr.h',
                                      'Line' => '22',
                                      'Name' => 'struct opentelemetry::v1::nostd::detail::unique_ptr_element_type<opentelemetry::v1::common::KeyValueProperties>',
                                      'NameSpace' => 'opentelemetry::v1::nostd::detail',
                                      'Size' => '1',
                                      'TParam' => {
                                                    '0' => {
                                                             'key' => 'T',
                                                             'type' => '5819'
                                                           }
                                                  },
                                      'Type' => 'Struct'
                                    },
                          '24289' => {
                                       'BaseType' => '6292',
                                       'Name' => 'opentelemetry::v1::common::KeyValueStringTokenizer*',
                                       'Size' => '8',
                                       'Type' => 'Pointer'
                                     },
                          '24304' => {
                                       'BaseType' => '2455',
                                       'Name' => 'opentelemetry::v1::nostd::string_view&',
                                       'Size' => '8',
                                       'Type' => 'Ref'
                                     },
                          '2442' => {
                                      'BaseType' => '5819',
                                      'Header' => 'unique_ptr.h',
                                      'Line' => '24',
                                      'Name' => 'opentelemetry::v1::nostd::detail::unique_ptr_element_type<opentelemetry::v1::common::KeyValueProperties>::type',
                                      'NameSpace' => 'opentelemetry::v1::nostd::detail::unique_ptr_element_type<opentelemetry::v1::common::KeyValueProperties>',
                                      'Size' => '24',
                                      'Type' => 'Typedef'
                                    },
                          '2455' => {
                                      'Header' => 'string_view.h',
                                      'Line' => '30',
                                      'Memb' => {
                                                  '0' => {
                                                           'access' => 'private',
                                                           'name' => 'length_',
                                                           'offset' => '0',
                                                           'type' => '2486'
                                                         },
                                                  '1' => {
                                                           'access' => 'private',
                                                           'name' => 'data_',
                                                           'offset' => '8',
                                                           'type' => '21734'
                                                         }
                                                },
                                      'Name' => 'opentelemetry::v1::nostd::string_view',
                                      'NameSpace' => 'opentelemetry::v1::nostd',
                                      'Size' => '16',
                                      'Type' => 'Class'
                                    },
                          '2486' => {
                                      'BaseType' => '12924',
                                      'Header' => 'string_view.h',
                                      'Line' => '33',
                                      'Name' => 'opentelemetry::v1::nostd::string_view::size_type',
                                      'NameSpace' => 'opentelemetry::v1::nostd::string_view',
                                      'Private' => 1,
                                      'Size' => '8',
                                      'Type' => 'Typedef'
                                    },
                          '26166' => {
                                       'Base' => {
                                                   '26944' => {
                                                                'pos' => '0'
                                                              }
                                                 },
                                       'Header' => 'variant.h',
                                       'Line' => '460',
                                       'Name' => 'absl::otel_v1::variant<absl::otel_v1::monostate>',
                                       'NameSpace' => 'absl::otel_v1',
                                       'Size' => '40',
                                       'TParam' => {
                                                     '0' => {
                                                              'key' => undef,
                                                              'type' => '26928'
                                                            }
                                                   },
                                       'Type' => 'Class'
                                     },
                          '26928' => {
                                       'Header' => 'variant.h',
                                       'Line' => '444',
                                       'Name' => 'struct absl::otel_v1::monostate',
                                       'NameSpace' => 'absl::otel_v1',
                                       'Size' => '1',
                                       'Type' => 'Struct'
                                     },
                          '26944' => {
                                       'BaseType' => '26956',
                                       'Header' => 'variant.h',
                                       'Line' => '1278',
                                       'Name' => 'absl::otel_v1::variant_internal::VariantBase<absl::monostate, bool, long, unsigned long, double, opentelemetry::nostd::shared_ptr<opentelemetry::trace::Span>, opentelemetry::nostd::shared_ptr<opentelemetry::trace::SpanContext>, opentelemetry::nostd::shared_ptr<opentelemetry::baggage::Baggage> >',
                                       'NameSpace' => 'absl::otel_v1::variant_internal',
                                       'Size' => '40',
                                       'TParam' => {
                                                     '0' => {
                                                              'name' => 'absl::monostate'
                                                            },
                                                     '1' => {
                                                              'name' => 'bool'
                                                            },
                                                     '2' => {
                                                              'name' => 'long'
                                                            },
                                                     '3' => {
                                                              'name' => 'unsigned long'
                                                            },
                                                     '4' => {
                                                              'name' => 'double'
                                                            },
                                                     '5' => {
                                                              'name' => 'opentelemetry::nostd::shared_ptr<opentelemetry::trace::Span>'
                                                            },
                                                     '6' => {
                                                              'name' => 'opentelemetry::nostd::shared_ptr<opentelemetry::trace::SpanContext>'
                                                            },
                                                     '7' => {
                                                              'name' => 'opentelemetry::nostd::shared_ptr<opentelemetry::baggage::Baggage>'
                                                            }
                                                   },
                                       'Type' => 'Typedef'
                                     },
                          '26956' => {
                                       'BaseType' => '32978',
                                       'Header' => 'variant.h',
                                       'Line' => '1265',
                                       'Name' => 'absl::otel_v1::variant_internal::VariantCopyAssignBase<absl::monostate, bool, long, unsigned long, double, opentelemetry::nostd::shared_ptr<opentelemetry::trace::Span>, opentelemetry::nostd::shared_ptr<opentelemetry::trace::SpanContext>, opentelemetry::nostd::shared_ptr<opentelemetry::baggage::Baggage> >',
                                       'NameSpace' => 'absl::otel_v1::variant_internal',
                                       'Size' => '40',
                                       'TParam' => {
                                                     '0' => {
                                                              'name' => 'absl::monostate'
                                                            },
                                                     '1' => {
                                                              'name' => 'bool'
                                                            },
                                                     '2' => {
                                                              'name' => 'long'
                                                            },
                                                     '3' => {
                                                              'name' => 'unsigned long'
                                                            },
                                                     '4' => {
                                                              'name' => 'double'
                                                            },
                                                     '5' => {
                                                              'name' => 'opentelemetry::nostd::shared_ptr<opentelemetry::trace::Span>'
                                                            },
                                                     '6' => {
                                                              'name' => 'opentelemetry::nostd::shared_ptr<opentelemetry::trace::SpanContext>'
                                                            },
                                                     '7' => {
                                                              'name' => 'opentelemetry::nostd::shared_ptr<opentelemetry::baggage::Baggage>'
                                                            }
                                                   },
                                       'Type' => 'Typedef'
                                     },
                          '26968' => {
                                       'Base' => {
                                                   '27167' => {
                                                                'access' => 'protected',
                                                                'pos' => '0'
                                                              }
                                                 },
                                       'Header' => 'variant.h',
                                       'Line' => '1406',
                                       'Name' => 'absl::otel_v1::variant_internal::VariantMoveAssignBaseNontrivial<absl::otel_v1::monostate>',
                                       'NameSpace' => 'absl::otel_v1::variant_internal',
                                       'Size' => '40',
                                       'TParam' => {
                                                     '0' => {
                                                              'key' => undef,
                                                              'type' => '26928'
                                                            }
                                                   },
                                       'Type' => 'Class'
                                     },
                          '27167' => {
                                       'BaseType' => '32990',
                                       'Header' => 'variant.h',
                                       'Line' => '1243',
                                       'Name' => 'absl::otel_v1::variant_internal::VariantCopyBase<absl::monostate, bool, long, unsigned long, double, opentelemetry::nostd::shared_ptr<opentelemetry::trace::Span>, opentelemetry::nostd::shared_ptr<opentelemetry::trace::SpanContext>, opentelemetry::nostd::shared_ptr<opentelemetry::baggage::Baggage> >',
                                       'NameSpace' => 'absl::otel_v1::variant_internal',
                                       'Size' => '40',
                                       'TParam' => {
                                                     '0' => {
                                                              'name' => 'absl::monostate'
                                                            },
                                                     '1' => {
                                                              'name' => 'bool'
                                                            },
                                                     '2' => {
                                                              'name' => 'long'
                                                            },
                                                     '3' => {
                                                              'name' => 'unsigned long'
                                                            },
                                                     '4' => {
                                                              'name' => 'double'
                                                            },
                                                     '5' => {
                                                              'name' => 'opentelemetry::nostd::shared_ptr<opentelemetry::trace::Span>'
                                                            },
                                                     '6' => {
                                                              'name' => 'opentelemetry::nostd::shared_ptr<opentelemetry::trace::SpanContext>'
                                                            },
                                                     '7' => {
                                                              'name' => 'opentelemetry::nostd::shared_ptr<opentelemetry::baggage::Baggage>'
                                                            }
                                                   },
                                       'Type' => 'Typedef'
                                     },
                          '27179' => {
                                       'Base' => {
                                                   '27396' => {
                                                                'access' => 'protected',
                                                                'pos' => '0'
                                                              }
                                                 },
                                       'Header' => 'variant.h',
                                       'Line' => '1323',
                                       'Name' => 'absl::otel_v1::variant_internal::VariantMoveBaseNontrivial<absl::otel_v1::monostate>',
                                       'NameSpace' => 'absl::otel_v1::variant_internal',
                                       'Size' => '40',
                                       'TParam' => {
                                                     '0' => {
                                                              'key' => undef,
                                                              'type' => '26928'
                                                            }
                                                   },
                                       'Type' => 'Class'
                                     },
                          '27396' => {
                                       'BaseType' => '33002',
                                       'Header' => 'variant.h',
                                       'Line' => '1222',
                                       'Name' => 'absl::otel_v1::variant_internal::VariantStateBaseDestructor<absl::monostate, bool, long, unsigned long, double, opentelemetry::nostd::shared_ptr<opentelemetry::trace::Span>, opentelemetry::nostd::shared_ptr<opentelemetry::trace::SpanContext>, opentelemetry::nostd::shared_ptr<opentelemetry::baggage::Baggage> >',
                                       'NameSpace' => 'absl::otel_v1::variant_internal',
                                       'Size' => '40',
                                       'TParam' => {
                                                     '0' => {
                                                              'name' => 'absl::monostate'
                                                            },
                                                     '1' => {
                                                              'name' => 'bool'
                                                            },
                                                     '2' => {
                                                              'name' => 'long'
                                                            },
                                                     '3' => {
                                                              'name' => 'unsigned long'
                                                            },
                                                     '4' => {
                                                              'name' => 'double'
                                                            },
                                                     '5' => {
                                                              'name' => 'opentelemetry::nostd::shared_ptr<opentelemetry::trace::Span>'
                                                            },
                                                     '6' => {
                                                              'name' => 'opentelemetry::nostd::shared_ptr<opentelemetry::trace::SpanContext>'
                                                            },
                                                     '7' => {
                                                              'name' => 'opentelemetry::nostd::shared_ptr<opentelemetry::baggage::Baggage>'
                                                            }
                                                   },
                                       'Type' => 'Typedef'
                                     },
                          '27408' => {
                                       'Header' => 'variant.h',
                                       'Line' => '1038',
                                       'Memb' => {
                                                   '0' => {
                                                            'access' => 'protected',
                                                            'name' => 'state_',
                                                            'offset' => '0',
                                                            'type' => '27617'
                                                          },
                                                   '1' => {
                                                            'access' => 'protected',
                                                            'name' => 'index_',
                                                            'offset' => '50',
                                                            'type' => '12924'
                                                          }
                                                 },
                                       'Name' => 'absl::otel_v1::variant_internal::VariantStateBase<absl::otel_v1::monostate, bool>',
                                       'NameSpace' => 'absl::otel_v1::variant_internal',
                                       'Size' => '40',
                                       'TParam' => {
                                                     '0' => {
                                                              'key' => 'H',
                                                              'type' => '26928'
                                                            },
                                                     '1' => {
                                                              'key' => undef,
                                                              'type' => '21663'
                                                            }
                                                   },
                                       'Type' => 'Class'
                                     },
                          '27617' => {
                                       'BaseType' => '33014',
                                       'Header' => 'variant.h',
                                       'Line' => '1032',
                                       'Name' => 'absl::otel_v1::variant_internal::DestructibleUnion<absl::monostate, bool, long, unsigned long, double, opentelemetry::nostd::shared_ptr<opentelemetry::trace::Span>, opentelemetry::nostd::shared_ptr<opentelemetry::trace::SpanContext>, opentelemetry::nostd::shared_ptr<opentelemetry::baggage::Baggage> >',
                                       'NameSpace' => 'absl::otel_v1::variant_internal',
                                       'Size' => '32',
                                       'TParam' => {
                                                     '0' => {
                                                              'name' => 'absl::monostate'
                                                            },
                                                     '1' => {
                                                              'name' => 'bool'
                                                            },
                                                     '2' => {
                                                              'name' => 'long'
                                                            },
                                                     '3' => {
                                                              'name' => 'unsigned long'
                                                            },
                                                     '4' => {
                                                              'name' => 'double'
                                                            },
                                                     '5' => {
                                                              'name' => 'opentelemetry::nostd::shared_ptr<opentelemetry::trace::Span>'
                                                            },
                                                     '6' => {
                                                              'name' => 'opentelemetry::nostd::shared_ptr<opentelemetry::trace::SpanContext>'
                                                            },
                                                     '7' => {
                                                              'name' => 'opentelemetry::nostd::shared_ptr<opentelemetry::baggage::Baggage>'
                                                            }
                                                   },
                                       'Type' => 'Typedef'
                                     },
                          '27629' => {
                                       'Header' => 'variant.h',
                                       'Line' => '976',
                                       'Memb' => {
                                                   '0' => {
                                                            'name' => 'head',
                                                            'offset' => '0',
                                                            'type' => '26928'
                                                          },
                                                   '1' => {
                                                            'name' => 'tail',
                                                            'offset' => '0',
                                                            'type' => '27713'
                                                          }
                                                 },
                                       'Name' => 'union absl::otel_v1::variant_internal::Union<absl::otel_v1::monostate>',
                                       'NameSpace' => 'absl::otel_v1::variant_internal',
                                       'Size' => '32',
                                       'TParam' => {
                                                     '0' => {
                                                              'key' => undef,
                                                              'type' => '26928'
                                                            }
                                                   },
                                       'Type' => 'Union'
                                     },
                          '27713' => {
                                       'BaseType' => '27746',
                                       'Header' => 'variant.h',
                                       'Line' => '977',
                                       'Name' => 'TailUnion',
                                       'Size' => '32',
                                       'Type' => 'Typedef'
                                     },
                          '27746' => {
                                       'Header' => 'variant.h',
                                       'Line' => '976',
                                       'Memb' => {
                                                   '0' => {
                                                            'name' => 'head',
                                                            'offset' => '0',
                                                            'type' => '21663'
                                                          },
                                                   '1' => {
                                                            'name' => 'tail',
                                                            'offset' => '0',
                                                            'type' => '27713'
                                                          }
                                                 },
                                       'Name' => 'union absl::otel_v1::variant_internal::Union<bool>',
                                       'NameSpace' => 'absl::otel_v1::variant_internal',
                                       'Size' => '32',
                                       'TParam' => {
                                                     '0' => {
                                                              'key' => undef,
                                                              'type' => '21663'
                                                            }
                                                   },
                                       'Type' => 'Union'
                                     },
                          '28474' => {
                                       'Header' => 'variant.h',
                                       'Line' => '1008',
                                       'Memb' => {
                                                   '0' => {
                                                            'name' => 'head',
                                                            'offset' => '0',
                                                            'type' => '26928'
                                                          },
                                                   '1' => {
                                                            'name' => 'tail',
                                                            'offset' => '0',
                                                            'type' => '27713'
                                                          }
                                                 },
                                       'Name' => 'union absl::otel_v1::variant_internal::DestructibleUnionImpl<absl::otel_v1::monostate>',
                                       'NameSpace' => 'absl::otel_v1::variant_internal',
                                       'Size' => '32',
                                       'TParam' => {
                                                     '0' => {
                                                              'key' => undef,
                                                              'type' => '26928'
                                                            }
                                                   },
                                       'Type' => 'Union'
                                     },
                          '29786' => {
                                       'Base' => {
                                                   '27408' => {
                                                                'access' => 'protected',
                                                                'pos' => '0'
                                                              }
                                                 },
                                       'Header' => 'variant.h',
                                       'Line' => '1281',
                                       'Name' => 'absl::otel_v1::variant_internal::VariantStateBaseDestructorNontrivial<absl::otel_v1::monostate>',
                                       'NameSpace' => 'absl::otel_v1::variant_internal',
                                       'Size' => '40',
                                       'TParam' => {
                                                     '0' => {
                                                              'key' => undef,
                                                              'type' => '26928'
                                                            }
                                                   },
                                       'Type' => 'Class'
                                     },
                          '30084' => {
                                       'Base' => {
                                                   '30409' => {
                                                                'access' => 'protected',
                                                                'pos' => '0'
                                                              }
                                                 },
                                       'Header' => 'variant.h',
                                       'Line' => '1365',
                                       'Name' => 'absl::otel_v1::variant_internal::VariantCopyBaseNontrivial<absl::otel_v1::monostate>',
                                       'NameSpace' => 'absl::otel_v1::variant_internal',
                                       'Size' => '40',
                                       'TParam' => {
                                                     '0' => {
                                                              'key' => undef,
                                                              'type' => '26928'
                                                            }
                                                   },
                                       'Type' => 'Class'
                                     },
                          '30409' => {
                                       'BaseType' => '33026',
                                       'Header' => 'variant.h',
                                       'Line' => '1235',
                                       'Name' => 'absl::otel_v1::variant_internal::VariantMoveBase<absl::monostate, bool, long, unsigned long, double, opentelemetry::nostd::shared_ptr<opentelemetry::trace::Span>, opentelemetry::nostd::shared_ptr<opentelemetry::trace::SpanContext>, opentelemetry::nostd::shared_ptr<opentelemetry::baggage::Baggage> >',
                                       'NameSpace' => 'absl::otel_v1::variant_internal',
                                       'Size' => '40',
                                       'TParam' => {
                                                     '0' => {
                                                              'name' => 'absl::monostate'
                                                            },
                                                     '1' => {
                                                              'name' => 'bool'
                                                            },
                                                     '2' => {
                                                              'name' => 'long'
                                                            },
                                                     '3' => {
                                                              'name' => 'unsigned long'
                                                            },
                                                     '4' => {
                                                              'name' => 'double'
                                                            },
                                                     '5' => {
                                                              'name' => 'opentelemetry::nostd::shared_ptr<opentelemetry::trace::Span>'
                                                            },
                                                     '6' => {
                                                              'name' => 'opentelemetry::nostd::shared_ptr<opentelemetry::trace::SpanContext>'
                                                            },
                                                     '7' => {
                                                              'name' => 'opentelemetry::nostd::shared_ptr<opentelemetry::baggage::Baggage>'
                                                            }
                                                   },
                                       'Type' => 'Typedef'
                                     },
                          '30421' => {
                                       'Base' => {
                                                   '30620' => {
                                                                'access' => 'protected',
                                                                'pos' => '0'
                                                              }
                                                 },
                                       'Header' => 'variant.h',
                                       'Line' => '1437',
                                       'Name' => 'absl::otel_v1::variant_internal::VariantCopyAssignBaseNontrivial<absl::otel_v1::monostate>',
                                       'NameSpace' => 'absl::otel_v1::variant_internal',
                                       'Size' => '40',
                                       'TParam' => {
                                                     '0' => {
                                                              'key' => undef,
                                                              'type' => '26928'
                                                            }
                                                   },
                                       'Type' => 'Class'
                                     },
                          '30620' => {
                                       'BaseType' => '33038',
                                       'Header' => 'variant.h',
                                       'Line' => '1251',
                                       'Name' => 'absl::otel_v1::variant_internal::VariantMoveAssignBase<absl::monostate, bool, long, unsigned long, double, opentelemetry::nostd::shared_ptr<opentelemetry::trace::Span>, opentelemetry::nostd::shared_ptr<opentelemetry::trace::SpanContext>, opentelemetry::nostd::shared_ptr<opentelemetry::baggage::Baggage> >',
                                       'NameSpace' => 'absl::otel_v1::variant_internal',
                                       'Size' => '40',
                                       'TParam' => {
                                                     '0' => {
                                                              'name' => 'absl::monostate'
                                                            },
                                                     '1' => {
                                                              'name' => 'bool'
                                                            },
                                                     '2' => {
                                                              'name' => 'long'
                                                            },
                                                     '3' => {
                                                              'name' => 'unsigned long'
                                                            },
                                                     '4' => {
                                                              'name' => 'double'
                                                            },
                                                     '5' => {
                                                              'name' => 'opentelemetry::nostd::shared_ptr<opentelemetry::trace::Span>'
                                                            },
                                                     '6' => {
                                                              'name' => 'opentelemetry::nostd::shared_ptr<opentelemetry::trace::SpanContext>'
                                                            },
                                                     '7' => {
                                                              'name' => 'opentelemetry::nostd::shared_ptr<opentelemetry::baggage::Baggage>'
                                                            }
                                                   },
                                       'Type' => 'Typedef'
                                     },
                          '31208' => {
                                       'Copied' => 1,
                                       'Header' => 'variant.h',
                                       'Line' => '352',
                                       'Name' => 'struct absl::otel_v1::variant_internal::VisitIndicesSwitch<8ul>',
                                       'NameSpace' => 'absl::otel_v1::variant_internal',
                                       'Size' => '1',
                                       'TParam' => {
                                                     '0' => {
                                                              'key' => 'EndIndex',
                                                              'type' => '21682',
                                                              'val' => '8'
                                                            }
                                                   },
                                       'Type' => 'Struct'
                                     },
                          '31580' => {
                                       'Copied' => 1,
                                       'Header' => 'variant.h',
                                       'Line' => '565',
                                       'Name' => 'struct absl::otel_v1::variant_internal::VariantCoreAccess',
                                       'NameSpace' => 'absl::otel_v1::variant_internal',
                                       'Size' => '1',
                                       'Type' => 'Struct'
                                     },
                          '31590' => {
                                       'Copied' => 1,
                                       'Header' => 'variant.h',
                                       'Line' => '648',
                                       'Memb' => {
                                                   '0' => {
                                                            'name' => 'left',
                                                            'offset' => '0',
                                                            'type' => '35488'
                                                          },
                                                   '1' => {
                                                            'name' => 'right',
                                                            'offset' => '8',
                                                            'type' => '73675'
                                                          }
                                                 },
                                       'Name' => 'struct absl::otel_v1::variant_internal::VariantCoreAccess::CopyAssignVisitor<absl::otel_v1::variant_internal::VariantCopyAssignBaseNontrivial<absl::otel_v1::monostate> >',
                                       'NameSpace' => 'absl::otel_v1::variant_internal::VariantCoreAccess',
                                       'Size' => '16',
                                       'TParam' => {
                                                     '0' => {
                                                              'key' => 'VType',
                                                              'type' => '30421'
                                                            }
                                                   },
                                       'Type' => 'Struct'
                                     },
                          '32442' => {
                                       'BaseType' => '32483',
                                       'Header' => 'variant.h',
                                       'Line' => '205',
                                       'Name' => 'absl::otel_v1::variant_internal::VisitIndicesResultT<absl::variant_internal::VariantCoreAccess::CopyAssignVisitor<absl::variant_internal::VariantCopyAssignBaseNontrivial<absl::monostate, bool, long, unsigned long, double, opentelemetry::nostd::shared_ptr<opentelemetry::trace::Span>, opentelemetry::nostd::shared_ptr<opentelemetry::trace::SpanContext>, opentelemetry::nostd::shared_ptr<opentelemetry::baggage::Baggage> > >, std::size_t>',
                                       'NameSpace' => 'absl::otel_v1::variant_internal',
                                       'TParam' => {
                                                     '0' => {
                                                              'name' => 'absl::variant_internal::VariantCoreAccess::CopyAssignVisitor<absl::variant_internal::VariantCopyAssignBaseNontrivial<absl::monostate, bool, long, unsigned long, double, opentelemetry::nostd::shared_ptr<opentelemetry::trace::Span>, opentelemetry::nostd::shared_ptr<opentelemetry::trace::SpanContext>, opentelemetry::nostd::shared_ptr<opentelemetry::baggage::Baggage> > >'
                                                            },
                                                     '1' => {
                                                              'name' => 'std::size_t'
                                                            }
                                                   },
                                       'Type' => 'Typedef'
                                     },
                          '32453' => {
                                       'Header' => 'variant.h',
                                       'Line' => '200',
                                       'Name' => 'struct absl::otel_v1::variant_internal::VisitIndicesResultImpl<absl::otel_v1::variant_internal::VariantCoreAccess::CopyAssignVisitor<absl::otel_v1::variant_internal::VariantCopyAssignBaseNontrivial<absl::otel_v1::monostate> >, unsigned long>',
                                       'NameSpace' => 'absl::otel_v1::variant_internal',
                                       'Size' => '1',
                                       'TParam' => {
                                                     '0' => {
                                                              'key' => 'Op',
                                                              'type' => '31590'
                                                            },
                                                     '1' => {
                                                              'key' => undef,
                                                              'type' => '21682'
                                                            }
                                                   },
                                       'Type' => 'Struct'
                                     },
                          '32483' => {
                                       'BaseType' => '34664',
                                       'Header' => 'variant.h',
                                       'Line' => '201',
                                       'Name' => 'absl::otel_v1::variant_internal::VisitIndicesResultImpl<absl::otel_v1::variant_internal::VariantCoreAccess::CopyAssignVisitor<absl::otel_v1::variant_internal::VariantCopyAssignBaseNontrivial<absl::otel_v1::monostate> >, unsigned long>::type',
                                       'NameSpace' => 'absl::otel_v1::variant_internal::VisitIndicesResultImpl<absl::otel_v1::variant_internal::VariantCoreAccess::CopyAssignVisitor<absl::otel_v1::variant_internal::VariantCopyAssignBaseNontrivial<absl::otel_v1::monostate> >, unsigned long>',
                                       'Type' => 'Typedef'
                                     },
                          '32978' => {
                                       'BaseType' => '16951',
                                       'Header' => 'type_traits.h',
                                       'Line' => '611',
                                       'Name' => 'absl::otel_v1::conditional_t<absl::disjunction<absl::conjunction<absl::is_copy_assignable<Union<monostate, bool, long, unsigned long, double, shared_ptr<Span>, shared_ptr<SpanContext>, shared_ptr<Baggage> > >, std::is_copy_constructible<Union<monostate, bool, long, unsigned long, double, shared_ptr<Span>, shared_ptr<SpanContext>, shared_ptr<Baggage> > >, std::is_destructible<Union<monostate, bool, long, unsigned long, double, shared_ptr<Span>, shared_ptr<SpanContext>, shared_ptr<Baggage> > > >, absl::negation<absl::conjunction<std::is_copy_constructible<monostate>, std::is_copy_constructible<bool>, std::is_copy_constructible<long>, std::is_copy_constructible<unsigned long>, std::is_copy_constructible<double>, std::is_copy_constructible<shared_ptr<Span> >, std::is_copy_constructible<shared_ptr<SpanContext> >, std::is_copy_constructible<shared_ptr<Baggage> >, is_copy_assignable<monostate>, is_copy_assignable<bool>, is_copy_assignable<long>, is_copy_assignable<unsigned long>, is_copy_assignable<double>, is_copy_assignable<shared_ptr<Span> >, is_copy_assignable<shared_ptr<SpanContext> >, is_copy_assignable<shared_ptr<Baggage> > > > >::value, VariantMoveAssignBase<absl::monostate, bool, long, unsigned long, double, opentelemetry::nostd::shared_ptr<opentelemetry::trace::Span>, opentelemetry::nostd::shared_ptr<opentelemetry::trace::SpanContext>, opentelemetry::nostd::shared_ptr<opentelemetry::baggage::Baggage> >, VariantCopyAssignBaseNontrivial<absl::monostate, bool, long, unsigned long, double, opentelemetry::nostd::shared_ptr<opentelemetry::trace::Span>, opentelemetry::nostd::shared_ptr<opentelemetry::trace::SpanContext>, opentelemetry::nostd::shared_ptr<opentelemetry::baggage::Baggage> > >',
                                       'NameSpace' => 'absl::otel_v1',
                                       'Size' => '40',
                                       'TParam' => {
                                                     '0' => {
                                                              'name' => 'absl::disjunction<absl::conjunction<absl::is_copy_assignable<Union<monostate, bool, long, unsigned long, double, shared_ptr<Span>, shared_ptr<SpanContext>, shared_ptr<Baggage> > >, std::is_copy_constructible<Union<monostate, bool, long, unsigned long, double, shared_ptr<Span>, shared_ptr<SpanContext>, shared_ptr<Baggage> > >, std::is_destructible<Union<monostate, bool, long, unsigned long, double, shared_ptr<Span>, shared_ptr<SpanContext>, shared_ptr<Baggage> > > >, absl::negation<absl::conjunction<std::is_copy_constructible<monostate>, std::is_copy_constructible<bool>, std::is_copy_constructible<long>, std::is_copy_constructible<unsigned long>, std::is_copy_constructible<double>, std::is_copy_constructible<shared_ptr<Span> >, std::is_copy_constructible<shared_ptr<SpanContext> >, std::is_copy_constructible<shared_ptr<Baggage> >, is_copy_assignable<monostate>, is_copy_assignable<bool>, is_copy_assignable<long>, is_copy_assignable<unsigned long>, is_copy_assignable<double>, is_copy_assignable<shared_ptr<Span> >, is_copy_assignable<shared_ptr<SpanContext> >, is_copy_assignable<shared_ptr<Baggage> > > > >::value'
                                                            },
                                                     '1' => {
                                                              'name' => 'VariantMoveAssignBase<absl::monostate, bool, long, unsigned long, double, opentelemetry::nostd::shared_ptr<opentelemetry::trace::Span>, opentelemetry::nostd::shared_ptr<opentelemetry::trace::SpanContext>, opentelemetry::nostd::shared_ptr<opentelemetry::baggage::Baggage> >'
                                                            },
                                                     '2' => {
                                                              'name' => 'VariantCopyAssignBaseNontrivial<absl::monostate, bool, long, unsigned long, double, opentelemetry::nostd::shared_ptr<opentelemetry::trace::Span>, opentelemetry::nostd::shared_ptr<opentelemetry::trace::SpanContext>, opentelemetry::nostd::shared_ptr<opentelemetry::baggage::Baggage> >'
                                                            }
                                                   },
                                       'Type' => 'Typedef'
                                     },
                          '32990' => {
                                       'BaseType' => '17002',
                                       'Header' => 'type_traits.h',
                                       'Line' => '611',
                                       'Name' => 'absl::otel_v1::conditional_t<absl::disjunction<absl::negation<absl::conjunction<std::is_copy_constructible<monostate>, std::is_copy_constructible<bool>, std::is_copy_constructible<long>, std::is_copy_constructible<unsigned long>, std::is_copy_constructible<double>, std::is_copy_constructible<shared_ptr<Span> >, std::is_copy_constructible<shared_ptr<SpanContext> >, std::is_copy_constructible<shared_ptr<Baggage> > > >, std::is_copy_constructible<Union<monostate, bool, long, unsigned long, double, shared_ptr<Span>, shared_ptr<SpanContext>, shared_ptr<Baggage> > > >::value, VariantMoveBase<absl::monostate, bool, long, unsigned long, double, opentelemetry::nostd::shared_ptr<opentelemetry::trace::Span>, opentelemetry::nostd::shared_ptr<opentelemetry::trace::SpanContext>, opentelemetry::nostd::shared_ptr<opentelemetry::baggage::Baggage> >, VariantCopyBaseNontrivial<absl::monostate, bool, long, unsigned long, double, opentelemetry::nostd::shared_ptr<opentelemetry::trace::Span>, opentelemetry::nostd::shared_ptr<opentelemetry::trace::SpanContext>, opentelemetry::nostd::shared_ptr<opentelemetry::baggage::Baggage> > >',
                                       'NameSpace' => 'absl::otel_v1',
                                       'Size' => '40',
                                       'TParam' => {
                                                     '0' => {
                                                              'name' => 'absl::disjunction<absl::negation<absl::conjunction<std::is_copy_constructible<monostate>, std::is_copy_constructible<bool>, std::is_copy_constructible<long>, std::is_copy_constructible<unsigned long>, std::is_copy_constructible<double>, std::is_copy_constructible<shared_ptr<Span> >, std::is_copy_constructible<shared_ptr<SpanContext> >, std::is_copy_constructible<shared_ptr<Baggage> > > >, std::is_copy_constructible<Union<monostate, bool, long, unsigned long, double, shared_ptr<Span>, shared_ptr<SpanContext>, shared_ptr<Baggage> > > >::value'
                                                            },
                                                     '1' => {
                                                              'name' => 'VariantMoveBase<absl::monostate, bool, long, unsigned long, double, opentelemetry::nostd::shared_ptr<opentelemetry::trace::Span>, opentelemetry::nostd::shared_ptr<opentelemetry::trace::SpanContext>, opentelemetry::nostd::shared_ptr<opentelemetry::baggage::Baggage> >'
                                                            },
                                                     '2' => {
                                                              'name' => 'VariantCopyBaseNontrivial<absl::monostate, bool, long, unsigned long, double, opentelemetry::nostd::shared_ptr<opentelemetry::trace::Span>, opentelemetry::nostd::shared_ptr<opentelemetry::trace::SpanContext>, opentelemetry::nostd::shared_ptr<opentelemetry::baggage::Baggage> >'
                                                            }
                                                   },
                                       'Type' => 'Typedef'
                                     },
                          '33002' => {
                                       'BaseType' => '17053',
                                       'Header' => 'type_traits.h',
                                       'Line' => '611',
                                       'Name' => 'absl::otel_v1::conditional_t<std::is_destructible<Union<monostate, bool, long, unsigned long, double, shared_ptr<Span>, shared_ptr<SpanContext>, shared_ptr<Baggage> > >::value, VariantStateBase<absl::monostate, bool, long, unsigned long, double, opentelemetry::nostd::shared_ptr<opentelemetry::trace::Span>, opentelemetry::nostd::shared_ptr<opentelemetry::trace::SpanContext>, opentelemetry::nostd::shared_ptr<opentelemetry::baggage::Baggage> >, VariantStateBaseDestructorNontrivial<absl::monostate, bool, long, unsigned long, double, opentelemetry::nostd::shared_ptr<opentelemetry::trace::Span>, opentelemetry::nostd::shared_ptr<opentelemetry::trace::SpanContext>, opentelemetry::nostd::shared_ptr<opentelemetry::baggage::Baggage> > >',
                                       'NameSpace' => 'absl::otel_v1',
                                       'Size' => '40',
                                       'TParam' => {
                                                     '0' => {
                                                              'name' => 'std::is_destructible<Union<monostate, bool, long, unsigned long, double, shared_ptr<Span>, shared_ptr<SpanContext>, shared_ptr<Baggage> > >::value'
                                                            },
                                                     '1' => {
                                                              'name' => 'VariantStateBase<absl::monostate, bool, long, unsigned long, double, opentelemetry::nostd::shared_ptr<opentelemetry::trace::Span>, opentelemetry::nostd::shared_ptr<opentelemetry::trace::SpanContext>, opentelemetry::nostd::shared_ptr<opentelemetry::baggage::Baggage> >'
                                                            },
                                                     '2' => {
                                                              'name' => 'VariantStateBaseDestructorNontrivial<absl::monostate, bool, long, unsigned long, double, opentelemetry::nostd::shared_ptr<opentelemetry::trace::Span>, opentelemetry::nostd::shared_ptr<opentelemetry::trace::SpanContext>, opentelemetry::nostd::shared_ptr<opentelemetry::baggage::Baggage> >'
                                                            }
                                                   },
                                       'Type' => 'Typedef'
                                     },
                          '33014' => {
                                       'BaseType' => '17104',
                                       'Header' => 'type_traits.h',
                                       'Line' => '611',
                                       'Name' => 'absl::otel_v1::conditional_t<std::is_destructible<Union<monostate, bool, long, unsigned long, double, shared_ptr<Span>, shared_ptr<SpanContext>, shared_ptr<Baggage> > >::value, Union<absl::monostate, bool, long, unsigned long, double, opentelemetry::nostd::shared_ptr<opentelemetry::trace::Span>, opentelemetry::nostd::shared_ptr<opentelemetry::trace::SpanContext>, opentelemetry::nostd::shared_ptr<opentelemetry::baggage::Baggage> >, DestructibleUnionImpl<absl::monostate, bool, long, unsigned long, double, opentelemetry::nostd::shared_ptr<opentelemetry::trace::Span>, opentelemetry::nostd::shared_ptr<opentelemetry::trace::SpanContext>, opentelemetry::nostd::shared_ptr<opentelemetry::baggage::Baggage> > >',
                                       'NameSpace' => 'absl::otel_v1',
                                       'Size' => '32',
                                       'TParam' => {
                                                     '0' => {
                                                              'name' => 'std::is_destructible<Union<monostate, bool, long, unsigned long, double, shared_ptr<Span>, shared_ptr<SpanContext>, shared_ptr<Baggage> > >::value'
                                                            },
                                                     '1' => {
                                                              'name' => 'Union<absl::monostate, bool, long, unsigned long, double, opentelemetry::nostd::shared_ptr<opentelemetry::trace::Span>, opentelemetry::nostd::shared_ptr<opentelemetry::trace::SpanContext>, opentelemetry::nostd::shared_ptr<opentelemetry::baggage::Baggage> >'
                                                            },
                                                     '2' => {
                                                              'name' => 'DestructibleUnionImpl<absl::monostate, bool, long, unsigned long, double, opentelemetry::nostd::shared_ptr<opentelemetry::trace::Span>, opentelemetry::nostd::shared_ptr<opentelemetry::trace::SpanContext>, opentelemetry::nostd::shared_ptr<opentelemetry::baggage::Baggage> >'
                                                            }
                                                   },
                                       'Type' => 'Typedef'
                                     },
                          '33026' => {
                                       'BaseType' => '17155',
                                       'Header' => 'type_traits.h',
                                       'Line' => '611',
                                       'Name' => 'absl::otel_v1::conditional_t<absl::disjunction<absl::negation<absl::conjunction<std::is_move_constructible<monostate>, std::is_move_constructible<bool>, std::is_move_constructible<long>, std::is_move_constructible<unsigned long>, std::is_move_constructible<double>, std::is_move_constructible<shared_ptr<Span> >, std::is_move_constructible<shared_ptr<SpanContext> >, std::is_move_constructible<shared_ptr<Baggage> > > >, absl::conjunction<IsTriviallyMoveConstructible<monostate>, IsTriviallyMoveConstructible<bool>, IsTriviallyMoveConstructible<long>, IsTriviallyMoveConstructible<unsigned long>, IsTriviallyMoveConstructible<double>, IsTriviallyMoveConstructible<shared_ptr<Span> >, IsTriviallyMoveConstructible<shared_ptr<SpanContext> >, IsTriviallyMoveConstructible<shared_ptr<Baggage> > > >::value, VariantStateBaseDestructor<absl::monostate, bool, long, unsigned long, double, opentelemetry::nostd::shared_ptr<opentelemetry::trace::Span>, opentelemetry::nostd::shared_ptr<opentelemetry::trace::SpanContext>, opentelemetry::nostd::shared_ptr<opentelemetry::baggage::Baggage> >, VariantMoveBaseNontrivial<absl::monostate, bool, long, unsigned long, double, opentelemetry::nostd::shared_ptr<opentelemetry::trace::Span>, opentelemetry::nostd::shared_ptr<opentelemetry::trace::SpanContext>, opentelemetry::nostd::shared_ptr<opentelemetry::baggage::Baggage> > >',
                                       'NameSpace' => 'absl::otel_v1',
                                       'Size' => '40',
                                       'TParam' => {
                                                     '0' => {
                                                              'name' => 'absl::disjunction<absl::negation<absl::conjunction<std::is_move_constructible<monostate>, std::is_move_constructible<bool>, std::is_move_constructible<long>, std::is_move_constructible<unsigned long>, std::is_move_constructible<double>, std::is_move_constructible<shared_ptr<Span> >, std::is_move_constructible<shared_ptr<SpanContext> >, std::is_move_constructible<shared_ptr<Baggage> > > >, absl::conjunction<IsTriviallyMoveConstructible<monostate>, IsTriviallyMoveConstructible<bool>, IsTriviallyMoveConstructible<long>, IsTriviallyMoveConstructible<unsigned long>, IsTriviallyMoveConstructible<double>, IsTriviallyMoveConstructible<shared_ptr<Span> >, IsTriviallyMoveConstructible<shared_ptr<SpanContext> >, IsTriviallyMoveConstructible<shared_ptr<Baggage> > > >::value'
                                                            },
                                                     '1' => {
                                                              'name' => 'VariantStateBaseDestructor<absl::monostate, bool, long, unsigned long, double, opentelemetry::nostd::shared_ptr<opentelemetry::trace::Span>, opentelemetry::nostd::shared_ptr<opentelemetry::trace::SpanContext>, opentelemetry::nostd::shared_ptr<opentelemetry::baggage::Baggage> >'
                                                            },
                                                     '2' => {
                                                              'name' => 'VariantMoveBaseNontrivial<absl::monostate, bool, long, unsigned long, double, opentelemetry::nostd::shared_ptr<opentelemetry::trace::Span>, opentelemetry::nostd::shared_ptr<opentelemetry::trace::SpanContext>, opentelemetry::nostd::shared_ptr<opentelemetry::baggage::Baggage> >'
                                                            }
                                                   },
                                       'Type' => 'Typedef'
                                     },
                          '33038' => {
                                       'BaseType' => '17206',
                                       'Header' => 'type_traits.h',
                                       'Line' => '611',
                                       'Name' => 'absl::otel_v1::conditional_t<absl::disjunction<absl::conjunction<absl::is_move_assignable<Union<monostate, bool, long, unsigned long, double, shared_ptr<Span>, shared_ptr<SpanContext>, shared_ptr<Baggage> > >, std::is_move_constructible<Union<monostate, bool, long, unsigned long, double, shared_ptr<Span>, shared_ptr<SpanContext>, shared_ptr<Baggage> > >, std::is_destructible<Union<monostate, bool, long, unsigned long, double, shared_ptr<Span>, shared_ptr<SpanContext>, shared_ptr<Baggage> > > >, absl::negation<absl::conjunction<std::is_move_constructible<monostate>, std::is_move_constructible<bool>, std::is_move_constructible<long>, std::is_move_constructible<unsigned long>, std::is_move_constructible<double>, std::is_move_constructible<shared_ptr<Span> >, std::is_move_constructible<shared_ptr<SpanContext> >, std::is_move_constructible<shared_ptr<Baggage> >, is_move_assignable<monostate>, is_move_assignable<bool>, is_move_assignable<long>, is_move_assignable<unsigned long>, is_move_assignable<double>, is_move_assignable<shared_ptr<Span> >, is_move_assignable<shared_ptr<SpanContext> >, is_move_assignable<shared_ptr<Baggage> > > > >::value, VariantCopyBase<absl::monostate, bool, long, unsigned long, double, opentelemetry::nostd::shared_ptr<opentelemetry::trace::Span>, opentelemetry::nostd::shared_ptr<opentelemetry::trace::SpanContext>, opentelemetry::nostd::shared_ptr<opentelemetry::baggage::Baggage> >, VariantMoveAssignBaseNontrivial<absl::monostate, bool, long, unsigned long, double, opentelemetry::nostd::shared_ptr<opentelemetry::trace::Span>, opentelemetry::nostd::shared_ptr<opentelemetry::trace::SpanContext>, opentelemetry::nostd::shared_ptr<opentelemetry::baggage::Baggage> > >',
                                       'NameSpace' => 'absl::otel_v1',
                                       'Size' => '40',
                                       'TParam' => {
                                                     '0' => {
                                                              'name' => 'absl::disjunction<absl::conjunction<absl::is_move_assignable<Union<monostate, bool, long, unsigned long, double, shared_ptr<Span>, shared_ptr<SpanContext>, shared_ptr<Baggage> > >, std::is_move_constructible<Union<monostate, bool, long, unsigned long, double, shared_ptr<Span>, shared_ptr<SpanContext>, shared_ptr<Baggage> > >, std::is_destructible<Union<monostate, bool, long, unsigned long, double, shared_ptr<Span>, shared_ptr<SpanContext>, shared_ptr<Baggage> > > >, absl::negation<absl::conjunction<std::is_move_constructible<monostate>, std::is_move_constructible<bool>, std::is_move_constructible<long>, std::is_move_constructible<unsigned long>, std::is_move_constructible<double>, std::is_move_constructible<shared_ptr<Span> >, std::is_move_constructible<shared_ptr<SpanContext> >, std::is_move_constructible<shared_ptr<Baggage> >, is_move_assignable<monostate>, is_move_assignable<bool>, is_move_assignable<long>, is_move_assignable<unsigned long>, is_move_assignable<double>, is_move_assignable<shared_ptr<Span> >, is_move_assignable<shared_ptr<SpanContext> >, is_move_assignable<shared_ptr<Baggage> > > > >::value'
                                                            },
                                                     '1' => {
                                                              'name' => 'VariantCopyBase<absl::monostate, bool, long, unsigned long, double, opentelemetry::nostd::shared_ptr<opentelemetry::trace::Span>, opentelemetry::nostd::shared_ptr<opentelemetry::trace::SpanContext>, opentelemetry::nostd::shared_ptr<opentelemetry::baggage::Baggage> >'
                                                            },
                                                     '2' => {
                                                              'name' => 'VariantMoveAssignBaseNontrivial<absl::monostate, bool, long, unsigned long, double, opentelemetry::nostd::shared_ptr<opentelemetry::trace::Span>, opentelemetry::nostd::shared_ptr<opentelemetry::trace::SpanContext>, opentelemetry::nostd::shared_ptr<opentelemetry::baggage::Baggage> >'
                                                            }
                                                   },
                                       'Type' => 'Typedef'
                                     },
                          '3332' => {
                                      'Header' => 'shared_ptr.h',
                                      'Line' => '22',
                                      'Memb' => {
                                                  '0' => {
                                                           'access' => 'private',
                                                           'name' => 'buffer_',
                                                           'offset' => '0',
                                                           'type' => '3387'
                                                         }
                                                },
                                      'Name' => 'opentelemetry::v1::nostd::shared_ptr<opentelemetry::v1::baggage::Baggage>',
                                      'NameSpace' => 'opentelemetry::v1::nostd',
                                      'Size' => '32',
                                      'TParam' => {
                                                    '0' => {
                                                             'key' => 'T',
                                                             'type' => '82'
                                                           }
                                                  },
                                      'Type' => 'Class'
                                    },
                          '3387' => {
                                      'Header' => 'shared_ptr.h',
                                      'Line' => '32',
                                      'Memb' => {
                                                  '0' => {
                                                           'name' => 'data',
                                                           'offset' => '0',
                                                           'type' => '23366'
                                                         }
                                                },
                                      'Name' => 'struct opentelemetry::v1::nostd::shared_ptr<opentelemetry::v1::baggage::Baggage>::PlacementBuffer',
                                      'NameSpace' => 'opentelemetry::v1::nostd::shared_ptr<opentelemetry::v1::baggage::Baggage>',
                                      'Private' => 1,
                                      'Size' => '32',
                                      'Type' => 'Struct'
                                    },
                          '3443' => {
                                      'BaseType' => '23830',
                                      'Header' => 'shared_ptr.h',
                                      'Line' => '26',
                                      'Name' => 'opentelemetry::v1::nostd::shared_ptr<opentelemetry::v1::baggage::Baggage>::pointer',
                                      'NameSpace' => 'opentelemetry::v1::nostd::shared_ptr<opentelemetry::v1::baggage::Baggage>',
                                      'Private' => 1,
                                      'Size' => '8',
                                      'Type' => 'Typedef'
                                    },
                          '3454' => {
                                      'BaseType' => '82',
                                      'Header' => 'shared_ptr.h',
                                      'Line' => '25',
                                      'Name' => 'opentelemetry::v1::nostd::shared_ptr<opentelemetry::v1::baggage::Baggage>::element_type',
                                      'NameSpace' => 'opentelemetry::v1::nostd::shared_ptr<opentelemetry::v1::baggage::Baggage>',
                                      'Private' => 1,
                                      'Size' => '8',
                                      'Type' => 'Typedef'
                                    },
                          '34664' => {
                                       'BaseType' => '20672',
                                       'Header' => 'type_traits.h',
                                       'Line' => '633',
                                       'Name' => 'absl::otel_v1::result_of_t<absl::variant_internal::VariantCoreAccess::CopyAssignVisitor<absl::variant_internal::VariantCopyAssignBaseNontrivial<absl::monostate, bool, long, unsigned long, double, opentelemetry::nostd::shared_ptr<opentelemetry::trace::Span>, opentelemetry::nostd::shared_ptr<opentelemetry::trace::SpanContext>, opentelemetry::nostd::shared_ptr<opentelemetry::baggage::Baggage> > >(AlwaysZero<unsigned long>)>',
                                       'NameSpace' => 'absl::otel_v1',
                                       'TParam' => {
                                                     '0' => {
                                                              'name' => 'absl::variant_internal::VariantCoreAccess::CopyAssignVisitor<absl::variant_internal::VariantCopyAssignBaseNontrivial<absl::monostate, bool, long, unsigned long, double, opentelemetry::nostd::shared_ptr<opentelemetry::trace::Span>, opentelemetry::nostd::shared_ptr<opentelemetry::trace::SpanContext>, opentelemetry::nostd::shared_ptr<opentelemetry::baggage::Baggage> > >(AlwaysZero<unsigned long>)'
                                                            }
                                                   },
                                       'Type' => 'Typedef'
                                     },
                          '34892' => {
                                       'Copied' => 1,
                                       'Header' => 'baggage.h',
                                       'Line' => '169',
                                       'Memb' => {
                                                   '0' => {
                                                            'access' => 'private',
                                                            'name' => 'first',
                                                            'offset' => '0',
                                                            'type' => '24137'
                                                          },
                                                   '1' => {
                                                            'access' => 'private',
                                                            'name' => 'header_s',
                                                            'offset' => '8',
                                                            'type' => '23768'
                                                          }
                                                 },
                                       'Name' => 'anon-class-baggage.h-169',
                                       'Size' => '16',
                                       'Type' => 'Class'
                                     },
                          '35388' => {
                                       'BaseType' => '29786',
                                       'Name' => 'absl::otel_v1::variant_internal::VariantStateBaseDestructorNontrivial<absl::otel_v1::monostate>*',
                                       'Size' => '8',
                                       'Type' => 'Pointer'
                                     },
                          '35488' => {
                                       'BaseType' => '30421',
                                       'Name' => 'absl::otel_v1::variant_internal::VariantCopyAssignBaseNontrivial<absl::otel_v1::monostate>*',
                                       'Size' => '8',
                                       'Type' => 'Pointer'
                                     },
                          '35503' => {
                                       'BaseType' => '30421',
                                       'Name' => 'absl::otel_v1::variant_internal::VariantCopyAssignBaseNontrivial<absl::otel_v1::monostate>const',
                                       'Size' => '40',
                                       'Type' => 'Const'
                                     },
                          '35513' => {
                                       'BaseType' => '26166',
                                       'Name' => 'absl::otel_v1::variant<absl::otel_v1::monostate>*',
                                       'Size' => '8',
                                       'Type' => 'Pointer'
                                     },
                          '35518' => {
                                       'BaseType' => '35523',
                                       'Name' => 'absl::otel_v1::variant<absl::otel_v1::monostate>const&',
                                       'Size' => '8',
                                       'Type' => 'Ref'
                                     },
                          '35523' => {
                                       'BaseType' => '26166',
                                       'Name' => 'absl::otel_v1::variant<absl::otel_v1::monostate>const',
                                       'Size' => '40',
                                       'Type' => 'Const'
                                     },
                          '35598' => {
                                       'BaseType' => '5469',
                                       'Name' => 'opentelemetry::v1::nostd::shared_ptr<opentelemetry::v1::context::Context::DataList>::shared_ptr_wrapper*',
                                       'Size' => '8',
                                       'Type' => 'Pointer'
                                     },
                          '35603' => {
                                       'BaseType' => '6587',
                                       'Name' => 'opentelemetry::v1::context::Context*',
                                       'Size' => '8',
                                       'Type' => 'Pointer'
                                     },
                          '35608' => {
                                       'BaseType' => '35613',
                                       'Name' => 'opentelemetry::v1::context::Context const*',
                                       'Size' => '8',
                                       'Type' => 'Pointer'
                                     },
                          '35613' => {
                                       'BaseType' => '6587',
                                       'Name' => 'opentelemetry::v1::context::Context const',
                                       'Size' => '32',
                                       'Type' => 'Const'
                                     },
                          '35618' => {
                                       'BaseType' => '35613',
                                       'Name' => 'opentelemetry::v1::context::Context const&',
                                       'Size' => '8',
                                       'Type' => 'Ref'
                                     },
                          '35623' => {
                                       'BaseType' => '6759',
                                       'Name' => 'opentelemetry::v1::context::Context::DataList*',
                                       'Size' => '8',
                                       'Type' => 'Pointer'
                                     },
                          '35628' => {
                                       'BaseType' => '35633',
                                       'Name' => 'opentelemetry::v1::context::ContextValue const&',
                                       'Size' => '8',
                                       'Type' => 'Ref'
                                     },
                          '35633' => {
                                       'BaseType' => '6930',
                                       'Name' => 'opentelemetry::v1::context::ContextValue const',
                                       'Size' => '40',
                                       'Type' => 'Const'
                                     },
                          '35653' => {
                                       'BaseType' => '5136',
                                       'Name' => 'opentelemetry::v1::nostd::shared_ptr<opentelemetry::v1::context::Context::DataList>::element_type*',
                                       'Size' => '8',
                                       'Type' => 'Pointer'
                                     },
                          '35678' => {
                                       'BaseType' => '17476',
                                       'Name' => 'std::__shared_ptr<opentelemetry::v1::context::Context::DataList, 2(2)>::element_type*',
                                       'Size' => '8',
                                       'Type' => 'Pointer'
                                     },
                          '35808' => {
                                       'BaseType' => '35813',
                                       'Name' => 'opentelemetry::v1::nostd::shared_ptr<opentelemetry::v1::context::Context::DataList>::shared_ptr_wrapper const*',
                                       'Size' => '8',
                                       'Type' => 'Pointer'
                                     },
                          '35813' => {
                                       'BaseType' => '5469',
                                       'Name' => 'opentelemetry::v1::nostd::shared_ptr<opentelemetry::v1::context::Context::DataList>::shared_ptr_wrapper const',
                                       'Size' => '24',
                                       'Type' => 'Const'
                                     },
                          '35818' => {
                                       'BaseType' => '5069',
                                       'Name' => 'struct opentelemetry::v1::nostd::shared_ptr<opentelemetry::v1::context::Context::DataList>::PlacementBuffer&',
                                       'Size' => '8',
                                       'Type' => 'Ref'
                                     },
                          '35838' => {
                                       'BaseType' => '18034',
                                       'Name' => 'std::_Sp_counted_ptr<opentelemetry::v1::baggage::Baggage*, 2(2)>*',
                                       'Size' => '8',
                                       'Type' => 'Pointer'
                                     },
                          '35858' => {
                                       'BaseType' => '6946',
                                       'Name' => 'opentelemetry::v1::context::propagation::TextMapPropagator*',
                                       'Size' => '8',
                                       'Type' => 'Pointer'
                                     },
                          '35863' => {
                                       'BaseType' => '35868',
                                       'Name' => 'opentelemetry::v1::context::propagation::TextMapCarrier const&',
                                       'Size' => '8',
                                       'Type' => 'Ref'
                                     },
                          '35868' => {
                                       'BaseType' => '7103',
                                       'Name' => 'opentelemetry::v1::context::propagation::TextMapCarrier const',
                                       'Size' => '8',
                                       'Type' => 'Const'
                                     },
                          '35873' => {
                                       'BaseType' => '35868',
                                       'Name' => 'opentelemetry::v1::context::propagation::TextMapCarrier const*',
                                       'Size' => '8',
                                       'Type' => 'Pointer'
                                     },
                          '35878' => {
                                       'BaseType' => '7103',
                                       'Name' => 'opentelemetry::v1::context::propagation::TextMapCarrier*',
                                       'Size' => '8',
                                       'Type' => 'Pointer'
                                     },
                          '35883' => {
                                       'BaseType' => '6587',
                                       'Name' => 'opentelemetry::v1::context::Context&',
                                       'Size' => '8',
                                       'Type' => 'Ref'
                                     },
                          '35888' => {
                                       'BaseType' => '7103',
                                       'Name' => 'opentelemetry::v1::context::propagation::TextMapCarrier&',
                                       'Size' => '8',
                                       'Type' => 'Ref'
                                     },
                          '35893' => {
                                       'BaseType' => '35898',
                                       'Name' => 'opentelemetry::v1::context::propagation::TextMapPropagator const*',
                                       'Size' => '8',
                                       'Type' => 'Pointer'
                                     },
                          '35898' => {
                                       'BaseType' => '6946',
                                       'Name' => 'opentelemetry::v1::context::propagation::TextMapPropagator const',
                                       'Size' => '8',
                                       'Type' => 'Const'
                                     },
                          '35903' => {
                                       'BaseType' => '988',
                                       'Name' => 'opentelemetry::v1::baggage::propagation::BaggagePropagator*',
                                       'Size' => '8',
                                       'Type' => 'Pointer'
                                     },
                          '35908' => {
                                       'BaseType' => '35913',
                                       'Name' => 'opentelemetry::v1::baggage::propagation::BaggagePropagator const*',
                                       'Size' => '8',
                                       'Type' => 'Pointer'
                                     },
                          '35913' => {
                                       'BaseType' => '988',
                                       'Name' => 'opentelemetry::v1::baggage::propagation::BaggagePropagator const',
                                       'Size' => '8',
                                       'Type' => 'Const'
                                     },
                          '35918' => {
                                       'Base' => {
                                                   '7103' => {
                                                               'pos' => '0'
                                                             }
                                                 },
                                       'Line' => '41',
                                       'Name' => 'AbiTextMapCarrier',
                                       'Size' => '8',
                                       'Source' => 'abi_check_baggage.cc',
                                       'Type' => 'Class'
                                     },
                          '36079' => {
                                       'BaseType' => '36084',
                                       'Name' => 'AbiTextMapCarrier const*',
                                       'Size' => '8',
                                       'Type' => 'Pointer'
                                     },
                          '36084' => {
                                       'BaseType' => '35918',
                                       'Name' => 'AbiTextMapCarrier const',
                                       'Size' => '8',
                                       'Type' => 'Const'
                                     },
                          '36089' => {
                                       'BaseType' => '35918',
                                       'Name' => 'AbiTextMapCarrier*',
                                       'Size' => '8',
                                       'Type' => 'Pointer'
                                     },
                          '36164' => {
                                       'BaseType' => '18291',
                                       'Name' => 'std::_Sp_counted_ptr<opentelemetry::v1::context::Context::DataList*, 2(2)>*',
                                       'Size' => '8',
                                       'Type' => 'Pointer'
                                     },
                          '36199' => {
                                       'BaseType' => '36204',
                                       'Name' => 'opentelemetry::v1::nostd::bad_variant_access const*',
                                       'Size' => '8',
                                       'Type' => 'Pointer'
                                     },
                          '36204' => {
                                       'BaseType' => '5755',
                                       'Name' => 'opentelemetry::v1::nostd::bad_variant_access const',
                                       'Size' => '8',
                                       'Type' => 'Const'
                                     },
                          '3787' => {
                                      'Header' => 'shared_ptr.h',
                                      'Line' => '37',
                                      'Memb' => {
                                                  '0' => {
                                                           'access' => 'private',
                                                           'name' => '_vptr$shared_ptr_wrapper',
                                                           'offset' => '0',
                                                           'type' => '23872'
                                                         },
                                                  '1' => {
                                                           'access' => 'private',
                                                           'name' => 'ptr_',
                                                           'offset' => '8',
                                                           'type' => '13692'
                                                         }
                                                },
                                      'Name' => 'opentelemetry::v1::nostd::shared_ptr<opentelemetry::v1::baggage::Baggage>::shared_ptr_wrapper',
                                      'NameSpace' => 'opentelemetry::v1::nostd::shared_ptr<opentelemetry::v1::baggage::Baggage>',
                                      'Private' => 1,
                                      'Size' => '24',
                                      'Type' => 'Class'
                                    },
                          '5014' => {
                                      'Header' => 'shared_ptr.h',
                                      'Line' => '22',
                                      'Memb' => {
                                                  '0' => {
                                                           'access' => 'private',
                                                           'name' => 'buffer_',
                                                           'offset' => '0',
                                                           'type' => '5069'
                                                         }
                                                },
                                      'Name' => 'opentelemetry::v1::nostd::shared_ptr<opentelemetry::v1::context::Context::DataList>',
                                      'NameSpace' => 'opentelemetry::v1::nostd',
                                      'Size' => '32',
                                      'TParam' => {
                                                    '0' => {
                                                             'key' => 'T',
                                                             'type' => '6759'
                                                           }
                                                  },
                                      'Type' => 'Class'
                                    },
                          '5069' => {
                                      'Header' => 'shared_ptr.h',
                                      'Line' => '32',
                                      'Memb' => {
                                                  '0' => {
                                                           'name' => 'data',
                                                           'offset' => '0',
                                                           'type' => '23366'
                                                         }
                                                },
                                      'Name' => 'struct opentelemetry::v1::nostd::shared_ptr<opentelemetry::v1::context::Context::DataList>::PlacementBuffer',
                                      'NameSpace' => 'opentelemetry::v1::nostd::shared_ptr<opentelemetry::v1::context::Context::DataList>',
                                      'Private' => 1,
                                      'Size' => '32',
                                      'Type' => 'Struct'
                                    },
                          '5125' => {
                                      'BaseType' => '35653',
                                      'Header' => 'shared_ptr.h',
                                      'Line' => '26',
                                      'Name' => 'opentelemetry::v1::nostd::shared_ptr<opentelemetry::v1::context::Context::DataList>::pointer',
                                      'NameSpace' => 'opentelemetry::v1::nostd::shared_ptr<opentelemetry::v1::context::Context::DataList>',
                                      'Private' => 1,
                                      'Size' => '8',
                                      'Type' => 'Typedef'
                                    },
                          '5136' => {
                                      'BaseType' => '6759',
                                      'Header' => 'shared_ptr.h',
                                      'Line' => '25',
                                      'Name' => 'opentelemetry::v1::nostd::shared_ptr<opentelemetry::v1::context::Context::DataList>::element_type',
                                      'NameSpace' => 'opentelemetry::v1::nostd::shared_ptr<opentelemetry::v1::context::Context::DataList>',
                                      'Private' => 1,
                                      'Size' => '88',
                                      'Type' => 'Typedef'
                                    },
                          '54138' => {
                                       'BaseType' => '54143',
                                       'Name' => 'anon-class-baggage.h-169 const*',
                                       'Size' => '8',
                                       'Type' => 'Pointer'
                                     },
                          '54143' => {
                                       'BaseType' => '34892',
                                       'Name' => 'anon-class-baggage.h-169 const',
                                       'Size' => '16',
                                       'Type' => 'Const'
                                     },
                          '5469' => {
                                      'Header' => 'shared_ptr.h',
                                      'Line' => '37',
                                      'Memb' => {
                                                  '0' => {
                                                           'access' => 'private',
                                                           'name' => '_vptr$shared_ptr_wrapper',
                                                           'offset' => '0',
                                                           'type' => '23872'
                                                         },
                                                  '1' => {
                                                           'access' => 'private',
                                                           'name' => 'ptr_',
                                                           'offset' => '8',
                                                           'type' => '17219'
                                                         }
                                                },
                                      'Name' => 'opentelemetry::v1::nostd::shared_ptr<opentelemetry::v1::context::Context::DataList>::shared_ptr_wrapper',
                                      'NameSpace' => 'opentelemetry::v1::nostd::shared_ptr<opentelemetry::v1::context::Context::DataList>',
                                      'Private' => 1,
                                      'Size' => '24',
                                      'Type' => 'Class'
                                    },
                          '5722' => {
                                      'Copied' => 1,
                                      'Name' => 'opentelemetry::v1::nostd::function_ref<bool(opentelemetry::v1::nostd::string_view)>',
                                      'NameSpace' => 'opentelemetry::v1::nostd',
                                      'TParam' => {
                                                    '0' => {
                                                             'name' => 'bool(opentelemetry::v1::nostd::string_view)'
                                                           }
                                                  },
                                      'Type' => 'Class'
                                    },
                          '5755' => {
                                      'Base' => {
                                                  '18617' => {
                                                               'pos' => '0'
                                                             }
                                                },
                                      'Copied' => 1,
                                      'Header' => 'variant.h',
                                      'Line' => '23',
                                      'Name' => 'opentelemetry::v1::nostd::bad_variant_access',
                                      'NameSpace' => 'opentelemetry::v1::nostd',
                                      'Size' => '8',
                                      'Type' => 'Class'
                                    },
                          '5819' => {
                                      'Header' => 'kv_properties.h',
                                      'Line' => '137',
                                      'Memb' => {
                                                  '0' => {
                                                           'name' => 'num_entries_',
                                                           'offset' => '0',
                                                           'type' => '23522'
                                                         },
                                                  '1' => {
                                                           'name' => 'max_num_entries_',
                                                           'offset' => '8',
                                                           'type' => '23522'
                                                         },
                                                  '2' => {
                                                           'name' => 'entries_',
                                                           'offset' => '22',
                                                           'type' => '1585'
                                                         }
                                                },
                                      'Name' => 'opentelemetry::v1::common::KeyValueProperties',
                                      'NameSpace' => 'opentelemetry::v1::common',
                                      'Size' => '24',
                                      'Type' => 'Class'
                                    },
                          '5867' => {
                                      'Header' => 'kv_properties.h',
                                      'Line' => '141',
                                      'Memb' => {
                                                  '0' => {
                                                           'access' => 'private',
                                                           'name' => 'key_',
                                                           'offset' => '0',
                                                           'type' => '1972'
                                                         },
                                                  '1' => {
                                                           'access' => 'private',
                                                           'name' => 'value_',
                                                           'offset' => '8',
                                                           'type' => '1972'
                                                         }
                                                },
                                      'Name' => 'opentelemetry::v1::common::KeyValueProperties::Entry',
                                      'NameSpace' => 'opentelemetry::v1::common::KeyValueProperties',
                                      'Private' => 1,
                                      'Size' => '16',
                                      'Type' => 'Class'
                                    },
                          '6292' => {
                                      'Header' => 'kv_properties.h',
                                      'Line' => '31',
                                      'Memb' => {
                                                  '0' => {
                                                           'access' => 'private',
                                                           'name' => 'str_',
                                                           'offset' => '0',
                                                           'type' => '2455'
                                                         },
                                                  '1' => {
                                                           'access' => 'private',
                                                           'name' => 'opts_',
                                                           'offset' => '22',
                                                           'type' => '6455'
                                                         },
                                                  '2' => {
                                                           'access' => 'private',
                                                           'name' => 'index_',
                                                           'offset' => '36',
                                                           'type' => '23522'
                                                         }
                                                },
                                      'Name' => 'opentelemetry::v1::common::KeyValueStringTokenizer',
                                      'NameSpace' => 'opentelemetry::v1::common',
                                      'Size' => '32',
                                      'Type' => 'Class'
                                    },
                          '6455' => {
                                      'Header' => 'kv_properties.h',
                                      'Line' => '23',
                                      'Memb' => {
                                                  '0' => {
                                                           'name' => 'member_separator',
                                                           'offset' => '0',
                                                           'type' => '21641'
                                                         },
                                                  '1' => {
                                                           'name' => 'key_value_separator',
                                                           'offset' => '1',
                                                           'type' => '21641'
                                                         },
                                                  '2' => {
                                                           'name' => 'ignore_empty_members',
                                                           'offset' => '2',
                                                           'type' => '21663'
                                                         }
                                                },
                                      'Name' => 'struct opentelemetry::v1::common::KeyValueStringTokenizerOptions',
                                      'NameSpace' => 'opentelemetry::v1::common',
                                      'Size' => '3',
                                      'Type' => 'Struct'
                                    },
                          '6501' => {
                                      'Copied' => 1,
                                      'Header' => 'string_util.h',
                                      'Line' => '12',
                                      'Name' => 'opentelemetry::v1::common::StringUtil',
                                      'NameSpace' => 'opentelemetry::v1::common',
                                      'Size' => '1',
                                      'Type' => 'Class'
                                    },
                          '6587' => {
                                      'Header' => 'context.h',
                                      'Line' => '19',
                                      'Memb' => {
                                                  '0' => {
                                                           'access' => 'private',
                                                           'name' => 'head_',
                                                           'offset' => '0',
                                                           'type' => '5014'
                                                         }
                                                },
                                      'Name' => 'opentelemetry::v1::context::Context',
                                      'NameSpace' => 'opentelemetry::v1::context',
                                      'Size' => '32',
                                      'Type' => 'Class'
                                    },
                          '6759' => {
                                      'Header' => 'context.h',
                                      'Line' => '91',
                                      'Memb' => {
                                                  '0' => {
                                                           'name' => 'key_',
                                                           'offset' => '0',
                                                           'type' => '21719'
                                                         },
                                                  '1' => {
                                                           'name' => 'next_',
                                                           'offset' => '8',
                                                           'type' => '5014'
                                                         },
                                                  '2' => {
                                                           'name' => 'key_length_',
                                                           'offset' => '64',
                                                           'type' => '23522'
                                                         },
                                                  '3' => {
                                                           'name' => 'value_',
                                                           'offset' => '72',
                                                           'type' => '6930'
                                                         }
                                                },
                                      'Name' => 'opentelemetry::v1::context::Context::DataList',
                                      'NameSpace' => 'opentelemetry::v1::context::Context',
                                      'Private' => 1,
                                      'Size' => '88',
                                      'Type' => 'Class'
                                    },
                          '6930' => {
                                      'BaseType' => '26166',
                                      'Header' => 'context_value.h',
                                      'Line' => '20',
                                      'Name' => 'opentelemetry::v1::context::ContextValue',
                                      'NameSpace' => 'opentelemetry::v1::context',
                                      'Size' => '40',
                                      'Type' => 'Typedef'
                                    },
                          '6946' => {
                                      'Copied' => 1,
                                      'Header' => 'text_map_propagator.h',
                                      'Line' => '42',
                                      'Memb' => {
                                                  '0' => {
                                                           'access' => 'private',
                                                           'name' => '_vptr$TextMapPropagator',
                                                           'offset' => '0',
                                                           'type' => '23872'
                                                         }
                                                },
                                      'Name' => 'opentelemetry::v1::context::propagation::TextMapPropagator',
                                      'NameSpace' => 'opentelemetry::v1::context::propagation',
                                      'Size' => '8',
                                      'Type' => 'Class'
                                    },
                          '7103' => {
                                      'Copied' => 1,
                                      'Header' => 'text_map_propagator.h',
                                      'Line' => '18',
                                      'Memb' => {
                                                  '0' => {
                                                           'access' => 'private',
                                                           'name' => '_vptr$TextMapCarrier',
                                                           'offset' => '0',
                                                           'type' => '23872'
                                                         }
                                                },
                                      'Name' => 'opentelemetry::v1::context::propagation::TextMapCarrier',
                                      'NameSpace' => 'opentelemetry::v1::context::propagation',
                                      'Size' => '8',
                                      'Type' => 'Class'
                                    },
                          '7269' => {
                                      'BaseType' => '7285',
                                      'Header' => 'stringfwd.h',
                                      'Line' => '77',
                                      'Name' => 'std::string',
                                      'NameSpace' => 'std',
                                      'Size' => '32',
                                      'Type' => 'Typedef'
                                    },
                          '7285' => {
                                      'Header' => 'basic_string.tcc',
                                      'Line' => '1082',
                                      'Memb' => {
                                                  '0' => {
                                                           'access' => 'private',
                                                           'name' => '_M_dataplus',
                                                           'offset' => '0',
                                                           'type' => '7367'
                                                         },
                                                  '1' => {
                                                           'access' => 'private',
                                                           'name' => '_M_string_length',
                                                           'offset' => '8',
                                                           'type' => '7344'
                                                         },
                                                  '2' => {
                                                           'access' => 'private',
                                                           'name' => 'unnamed0',
                                                           'offset' => '22',
                                                           'type' => '7494'
                                                         }
                                                },
                                      'Name' => 'std::__cxx11::basic_string<char, std::char_traits<char>, std::allocator<char> >',
                                      'NameSpace' => 'std::__cxx11',
                                      'Size' => '32',
                                      'TParam' => {
                                                    '0' => {
                                                             'key' => '_CharT',
                                                             'type' => '21641'
                                                           },
                                                    '1' => {
                                                             'key' => '_Traits',
                                                             'type' => '12512'
                                                           },
                                                    '2' => {
                                                             'key' => '_Alloc',
                                                             'type' => '12936'
                                                           }
                                                  },
                                      'Type' => 'Class'
                                    },
                          '7344' => {
                                      'BaseType' => '21943',
                                      'Header' => 'basic_string.h',
                                      'Line' => '126',
                                      'Name' => 'std::__cxx11::basic_string<char, std::char_traits<char>, std::allocator<char> >::size_type',
                                      'NameSpace' => 'std::__cxx11::basic_string<char, std::char_traits<char>, std::allocator<char> >',
                                      'Private' => 1,
                                      'Size' => '8',
                                      'Type' => 'Typedef'
                                    },
                          '7367' => {
                                      'Base' => {
                                                  '7441' => {
                                                              'pos' => '0'
                                                            }
                                                },
                                      'Header' => 'basic_string.h',
                                      'Line' => '192',
                                      'Memb' => {
                                                  '0' => {
                                                           'name' => '_M_p',
                                                           'offset' => '0',
                                                           'type' => '7463'
                                                         }
                                                },
                                      'Name' => 'struct std::__cxx11::basic_string<char, std::char_traits<char>, std::allocator<char> >::_Alloc_hider',
                                      'NameSpace' => 'std::__cxx11::basic_string<char, std::char_traits<char>, std::allocator<char> >',
                                      'Private' => 1,
                                      'Size' => '8',
                                      'Type' => 'Struct'
                                    },
                          '73675' => {
                                       'BaseType' => '35503',
                                       'Name' => 'absl::otel_v1::variant_internal::VariantCopyAssignBaseNontrivial<absl::otel_v1::monostate>const*',
                                       'Size' => '8',
                                       'Type' => 'Pointer'
                                     },
                          '73690' => {
                                       'BaseType' => '31590',
                                       'Name' => 'struct absl::otel_v1::variant_internal::VariantCoreAccess::CopyAssignVisitor<absl::otel_v1::variant_internal::VariantCopyAssignBaseNontrivial<absl::otel_v1::monostate> >&&',
                                       'Size' => '8',
                                       'Type' => 'RvalueRef'
                                     },
                          '7441' => {
                                      'BaseType' => '7452',
                                      'Header' => 'basic_string.h',
                                      'Line' => '125',
                                      'Name' => 'std::__cxx11::basic_string<char, std::char_traits<char>, std::allocator<char> >::allocator_type',
                                      'NameSpace' => 'std::__cxx11::basic_string<char, std::char_traits<char>, std::allocator<char> >',
                                      'Private' => 1,
                                      'Size' => '1',
                                      'Type' => 'Typedef'
                                    },
                          '7452' => {
                                      'BaseType' => '21972',
                                      'Header' => 'basic_string.h',
                                      'Line' => '88',
                                      'Name' => 'std::__cxx11::basic_string<char, std::char_traits<char>, std::allocator<char> >::_Char_alloc_type',
                                      'NameSpace' => 'std::__cxx11::basic_string<char, std::char_traits<char>, std::allocator<char> >',
                                      'Private' => 1,
                                      'Size' => '1',
                                      'Type' => 'Typedef'
                                    },
                          '7463' => {
                                      'BaseType' => '21984',
                                      'Header' => 'basic_string.h',
                                      'Line' => '130',
                                      'Name' => 'std::__cxx11::basic_string<char, std::char_traits<char>, std::allocator<char> >::pointer',
                                      'NameSpace' => 'std::__cxx11::basic_string<char, std::char_traits<char>, std::allocator<char> >',
                                      'Private' => 1,
                                      'Size' => '8',
                                      'Type' => 'Typedef'
                                    },
                          '7494' => {
                                      'Header' => 'basic_string.h',
                                      'Line' => '215',
                                      'Memb' => {
                                                  '0' => {
                                                           'name' => '_M_local_buf',
                                                           'offset' => '0',
                                                           'type' => '23366'
                                                         },
                                                  '1' => {
                                                           'name' => '_M_allocated_capacity',
                                                           'offset' => '0',
                                                           'type' => '7344'
                                                         }
                                                },
                                      'Name' => 'std::__cxx11::basic_string<char, std::char_traits<char>, std::allocator<char> >::anon-union-basic_string.h-215',
                                      'NameSpace' => 'std::__cxx11::basic_string<char, std::char_traits<char>, std::allocator<char> >',
                                      'Private' => 1,
                                      'Size' => '16',
                                      'Type' => 'Union'
                                    },
                          '82' => {
                                    'Header' => 'baggage.h',
                                    'Line' => '19',
                                    'Memb' => {
                                                '0' => {
                                                         'access' => 'private',
                                                         'name' => 'kv_properties_',
                                                         'offset' => '0',
                                                         'type' => '1198'
                                                       }
                                              },
                                    'Name' => 'opentelemetry::v1::baggage::Baggage',
                                    'NameSpace' => 'opentelemetry::v1::baggage',
                                    'Size' => '8',
                                    'Type' => 'Class'
                                  },
                          '988' => {
                                     'Base' => {
                                                 '6946' => {
                                                             'pos' => '0'
                                                           }
                                               },
                                     'Header' => 'baggage_propagator.h',
                                     'Line' => '17',
                                     'Name' => 'opentelemetry::v1::baggage::propagation::BaggagePropagator',
                                     'NameSpace' => 'opentelemetry::v1::baggage::propagation',
                                     'Size' => '8',
                                     'Type' => 'Class'
                                   }
                        },
          'UndefinedSymbols' => {
                                  'abi_check_baggage.o' => {
                                                             '_Unwind_Resume' => 0,
                                                             '_ZNSt12out_of_rangeC1EPKc' => 0,
                                                             '_ZNSt12out_of_rangeD1Ev' => 0,
                                                             '_ZNSt7__cxx1112basic_stringIcSt11char_traitsIcESaIcEE9_M_appendEPKcm' => 0,
                                                             '_ZNSt7__cxx1112basic_stringIcSt11char_traitsIcESaIcEE9_M_createERmm' => 0,
                                                             '_ZNSt7__cxx1112basic_stringIcSt11char_traitsIcESaIcEE9_M_mutateEmmPKcm' => 0,
                                                             '_ZNSt7__cxx1112basic_stringIcSt11char_traitsIcESaIcEEC2EPKcRKS3_' => 0,
                                                             '_ZNSt7__cxx1112basic_stringIcSt11char_traitsIcESaIcEED2Ev' => 0,
                                                             '_ZSt19__throw_logic_errorPKc' => 0,
                                                             '_ZSt20__throw_length_errorPKc' => 0,
                                                             '_ZSt9terminatev' => 0,
                                                             '_ZTISt12out_of_range' => 0,
                                                             '_ZTVN10__cxxabiv117__class_type_infoE' => 0,
                                                             '_ZTVN10__cxxabiv120__si_class_type_infoE' => 0,
                                                             '_ZdaPv' => 0,
                                                             '_ZdlPv' => 0,
                                                             '_Znam' => 0,
                                                             '_Znwm' => 0,
                                                             '__assert_fail' => 0,
                                                             '__cxa_allocate_exception' => 0,
                                                             '__cxa_atexit' => 0,
                                                             '__cxa_begin_catch' => 0,
                                                             '__cxa_end_catch' => 0,
                                                             '__cxa_free_exception' => 0,
                                                             '__cxa_guard_abort' => 0,
                                                             '__cxa_guard_acquire' => 0,
                                                             '__cxa_guard_release' => 0,
                                                             '__cxa_pure_virtual' => 0,
                                                             '__cxa_rethrow' => 0,
                                                             '__cxa_throw' => 0,
                                                             '__gxx_personality_v0' => 0,
                                                             '__pthread_key_create' => 0,
                                                             'bcmp' => 0,
                                                             'isalnum' => 0,
                                                             'memchr' => 0,
                                                             'memcpy' => 0,
                                                             'memset' => 0,
                                                             'strlen' => 0,
                                                             'toupper' => 0
                                                           }
                                },
          'WordSize' => '8'
        };
