$VAR1 = {
          'ABI_DUMPER_VERSION' => '1.3',
          'ABI_DUMP_VERSION' => '3.5',
          'Arch' => 'x86_64',
          'GccVersion' => '12.1.0',
          'Headers' => {
                         'atomic' => 1,
                         'atomic_base.h' => 1,
                         'atomic_word.h' => 1,
                         'attribute_value.h' => 1,
                         'baggage.h' => 1,
                         'c++config.h' => 1,
                         'chrono.h' => 1,
                         'concurrence.h' => 1,
                         'context.h' => 1,
                         'context_value.h' => 1,
                         'function_ref.h' => 1,
                         'initializer_list' => 1,
                         'invoke.h' => 1,
                         'key_value_iterable.h' => 1,
                         'key_value_iterable_view.h' => 1,
                         'kv_properties.h' => 1,
                         'noop.h' => 1,
                         'provider.h' => 1,
                         'ratio' => 1,
                         'shared_ptr.h' => 1,
                         'shared_ptr_base.h' => 1,
                         'span.h' => 1,
                         'span_context.h' => 1,
                         'span_context_kv_iterable.h' => 1,
                         'span_context_kv_iterable_view.h' => 1,
                         'span_id.h' => 1,
                         'span_metadata.h' => 1,
                         'span_startoptions.h' => 1,
                         'spin_lock_mutex.h' => 1,
                         'stddef.h' => 1,
                         'stdint-intn.h' => 1,
                         'stdint-uintn.h' => 1,
                         'stdint.h' => 1,
                         'stl_pair.h' => 1,
                         'string_view.h' => 1,
                         'this_thread_sleep.h' => 1,
                         'timestamp.h' => 1,
                         'trace_flags.h' => 1,
                         'trace_id.h' => 1,
                         'trace_state.h' => 1,
                         'tracer.h' => 1,
                         'tracer_provider.h' => 1,
                         'type_traits' => 1,
                         'type_traits.h' => 1,
                         'types.h' => 1,
                         'unique_ptr.h' => 1,
                         'utility.h' => 1,
                         'variant.h' => 1
                       },
          'Language' => 'C++',
          'LibraryName' => 'abi_check_trace.o',
          'LibraryVersion' => '1.0.0',
          'NameSpaces' => {
                            '__gnu_cxx' => 1,
                            '__pstl::execution::v1' => 1,
                            'absl::otel_v1' => 1,
                            'absl::otel_v1::base_internal' => 1,
                            'absl::otel_v1::swap_internal' => 1,
                            'absl::otel_v1::variant_internal' => 1,
                            'opentelemetry::v1::baggage' => 1,
                            'opentelemetry::v1::common' => 1,
                            'opentelemetry::v1::context' => 1,
                            'opentelemetry::v1::nostd' => 1,
                            'opentelemetry::v1::nostd::detail' => 1,
                            'opentelemetry::v1::trace' => 1,
                            'opentelemetry::v1::trace::propagation' => 1,
                            'opentelemetry::v1::trace::propagation::detail' => 1,
                            'std' => 1,
                            'std::__cxx11' => 1,
                            'std::__detail' => 1,
                            'std::__exception_ptr' => 1,
                            'std::chrono' => 1,
                            'std::chrono::_V2' => 1,
                            'std::regex_constants' => 1,
                            'std::this_thread' => 1
                          },
          'Needed' => {},
          'Sources' => {
                         'abi_check_trace.cc' => 1
                       },
          'SymbolInfo' => {
                            '102614' => {
                                          'Header' => 'invoke.h',
                                          'InLine' => 2,
                                          'Line' => '179',
                                          'MnglName' => '_ZN4absl7otel_v113base_internal6InvokeINS0_16variant_internal36VariantStateBaseDestructorNontrivialIJN13opentelemetry2v15trace11SpanContextENS6_7context7ContextEEE9DestroyerEJSt17integral_constantImLm1EEEEEDTclsrNS1_7InvokerIJT_DpT0_EE4typeE6Invokecl7declvalISG_EEspcl7declvalISH_EEEEOSG_DpOSH_',
                                          'NameSpace' => 'absl::otel_v1::base_internal',
                                          'Param' => {
                                                       '0' => {
                                                                'name' => 'f',
                                                                'type' => '118892'
                                                              },
                                                       '1' => {
                                                                'name' => 'p2',
                                                                'type' => '134265'
                                                              }
                                                     },
                                          'Return' => '1',
                                          'ShortName' => 'Invoke<absl::otel_v1::variant_internal::VariantStateBaseDestructorNontrivial<opentelemetry::v1::trace::SpanContext>::Destroyer, std::integral_constant<unsigned long, 1ul> >',
                                          'TParam' => {
                                                        '0' => {
                                                                 'key' => 'F',
                                                                 'type' => '109187'
                                                               },
                                                        '1' => {
                                                                 'key' => undef,
                                                                 'type' => '41135'
                                                               }
                                                      }
                                        },
                            '102663' => {
                                          'Header' => 'invoke.h',
                                          'InLine' => 2,
                                          'Line' => '179',
                                          'MnglName' => '_ZN4absl7otel_v113base_internal6InvokeINS0_16variant_internal36VariantStateBaseDestructorNontrivialIJN13opentelemetry2v15trace11SpanContextENS6_7context7ContextEEE9DestroyerEJSt17integral_constantImLm0EEEEEDTclsrNS1_7InvokerIJT_DpT0_EE4typeE6Invokecl7declvalISG_EEspcl7declvalISH_EEEEOSG_DpOSH_',
                                          'NameSpace' => 'absl::otel_v1::base_internal',
                                          'Param' => {
                                                       '0' => {
                                                                'name' => 'f',
                                                                'type' => '118892'
                                                              },
                                                       '1' => {
                                                                'name' => 'p2',
                                                                'type' => '134322'
                                                              }
                                                     },
                                          'Return' => '1',
                                          'ShortName' => 'Invoke<absl::otel_v1::variant_internal::VariantStateBaseDestructorNontrivial<opentelemetry::v1::trace::SpanContext>::Destroyer, std::integral_constant<unsigned long, 0ul> >',
                                          'TParam' => {
                                                        '0' => {
                                                                 'key' => 'F',
                                                                 'type' => '109187'
                                                               },
                                                        '1' => {
                                                                 'key' => undef,
                                                                 'type' => '1252'
                                                               }
                                                      }
                                        },
                            '111242' => {
                                          'Class' => '111228',
                                          'Header' => 'variant.h',
                                          'InLine' => 2,
                                          'Line' => '357',
                                          'MnglName' => '_ZN4absl7otel_v116variant_internal18VisitIndicesSwitchILm2EE3RunINS1_36VariantStateBaseDestructorNontrivialIJN13opentelemetry2v15trace11SpanContextENS7_7context7ContextEEE9DestroyerEEENS1_22VisitIndicesResultImplIT_JmEE4typeEOSF_m',
                                          'Param' => {
                                                       '0' => {
                                                                'name' => 'op',
                                                                'type' => '118892'
                                                              },
                                                       '1' => {
                                                                'name' => 'i',
                                                                'type' => '1362'
                                                              }
                                                     },
                                          'Return' => '1',
                                          'ShortName' => 'Run<absl::otel_v1::variant_internal::VariantStateBaseDestructorNontrivial<opentelemetry::v1::trace::SpanContext>::Destroyer>',
                                          'Static' => 1,
                                          'TParam' => {
                                                        '0' => {
                                                                 'key' => 'Op',
                                                                 'type' => '109187'
                                                               }
                                                      }
                                        },
                            '121138' => {
                                          'Artificial' => 1,
                                          'Class' => '21202',
                                          'Constructor' => 1,
                                          'Header' => 'shared_ptr_base.h',
                                          'InLine' => 1,
                                          'Line' => '1462',
                                          'MnglName' => '_ZNSt12__shared_ptrIN13opentelemetry2v15trace10TraceStateELN9__gnu_cxx12_Lock_policyE2EEC2Ev',
                                          'Param' => {
                                                       '0' => {
                                                                'name' => 'this',
                                                                'type' => '114723'
                                                              }
                                                     },
                                          'ShortName' => '__shared_ptr'
                                        },
                            '121139' => {
                                          'Artificial' => 1,
                                          'Class' => '21202',
                                          'Constructor' => 1,
                                          'Header' => 'shared_ptr_base.h',
                                          'InLine' => 1,
                                          'Line' => '1462',
                                          'MnglName' => '_ZNSt12__shared_ptrIN13opentelemetry2v15trace10TraceStateELN9__gnu_cxx12_Lock_policyE2EEC1Ev',
                                          'Param' => {
                                                       '0' => {
                                                                'name' => 'this',
                                                                'type' => '114723'
                                                              }
                                                     },
                                          'ShortName' => '__shared_ptr'
                                        },
                            '121222' => {
                                          'Artificial' => 1,
                                          'Class' => '31540',
                                          'Constructor' => 1,
                                          'Header' => 'shared_ptr_base.h',
                                          'InLine' => 1,
                                          'Line' => '1462',
                                          'MnglName' => '_ZNSt12__shared_ptrIN13opentelemetry2v15trace4SpanELN9__gnu_cxx12_Lock_policyE2EEC2Ev',
                                          'Param' => {
                                                       '0' => {
                                                                'name' => 'this',
                                                                'type' => '115589'
                                                              }
                                                     },
                                          'ShortName' => '__shared_ptr'
                                        },
                            '121223' => {
                                          'Artificial' => 1,
                                          'Class' => '31540',
                                          'Constructor' => 1,
                                          'Header' => 'shared_ptr_base.h',
                                          'InLine' => 1,
                                          'Line' => '1462',
                                          'MnglName' => '_ZNSt12__shared_ptrIN13opentelemetry2v15trace4SpanELN9__gnu_cxx12_Lock_policyE2EEC1Ev',
                                          'Param' => {
                                                       '0' => {
                                                                'name' => 'this',
                                                                'type' => '115589'
                                                              }
                                                     },
                                          'ShortName' => '__shared_ptr'
                                        },
                            '121306' => {
                                          'Artificial' => 1,
                                          'Class' => '42193',
                                          'Constructor' => 1,
                                          'Header' => 'shared_ptr_base.h',
                                          'InLine' => 1,
                                          'Line' => '1462',
                                          'MnglName' => '_ZNSt12__shared_ptrIN13opentelemetry2v15trace6TracerELN9__gnu_cxx12_Lock_policyE2EEC2Ev',
                                          'Param' => {
                                                       '0' => {
                                                                'name' => 'this',
                                                                'type' => '117422'
                                                              }
                                                     },
                                          'ShortName' => '__shared_ptr'
                                        },
                            '121307' => {
                                          'Artificial' => 1,
                                          'Class' => '42193',
                                          'Constructor' => 1,
                                          'Header' => 'shared_ptr_base.h',
                                          'InLine' => 1,
                                          'Line' => '1462',
                                          'MnglName' => '_ZNSt12__shared_ptrIN13opentelemetry2v15trace6TracerELN9__gnu_cxx12_Lock_policyE2EEC1Ev',
                                          'Param' => {
                                                       '0' => {
                                                                'name' => 'this',
                                                                'type' => '117422'
                                                              }
                                                     },
                                          'ShortName' => '__shared_ptr'
                                        },
                            '121390' => {
                                          'Artificial' => 1,
                                          'Class' => '43689',
                                          'Constructor' => 1,
                                          'Header' => 'shared_ptr_base.h',
                                          'InLine' => 1,
                                          'Line' => '1462',
                                          'MnglName' => '_ZNSt12__shared_ptrIN13opentelemetry2v15trace10NoopTracerELN9__gnu_cxx12_Lock_policyE2EEC2Ev',
                                          'Param' => {
                                                       '0' => {
                                                                'name' => 'this',
                                                                'type' => '117652'
                                                              }
                                                     },
                                          'ShortName' => '__shared_ptr'
                                        },
                            '121391' => {
                                          'Artificial' => 1,
                                          'Class' => '43689',
                                          'Constructor' => 1,
                                          'Header' => 'shared_ptr_base.h',
                                          'InLine' => 1,
                                          'Line' => '1462',
                                          'MnglName' => '_ZNSt12__shared_ptrIN13opentelemetry2v15trace10NoopTracerELN9__gnu_cxx12_Lock_policyE2EEC1Ev',
                                          'Param' => {
                                                       '0' => {
                                                                'name' => 'this',
                                                                'type' => '117652'
                                                              }
                                                     },
                                          'ShortName' => '__shared_ptr'
                                        },
                            '121474' => {
                                          'Artificial' => 1,
                                          'Class' => '54328',
                                          'Constructor' => 1,
                                          'Header' => 'shared_ptr_base.h',
                                          'InLine' => 1,
                                          'Line' => '1462',
                                          'MnglName' => '_ZNSt12__shared_ptrIN13opentelemetry2v15trace14TracerProviderELN9__gnu_cxx12_Lock_policyE2EEC2Ev',
                                          'Param' => {
                                                       '0' => {
                                                                'name' => 'this',
                                                                'type' => '118477'
                                                              }
                                                     },
                                          'ShortName' => '__shared_ptr'
                                        },
                            '121475' => {
                                          'Artificial' => 1,
                                          'Class' => '54328',
                                          'Constructor' => 1,
                                          'Header' => 'shared_ptr_base.h',
                                          'InLine' => 1,
                                          'Line' => '1462',
                                          'MnglName' => '_ZNSt12__shared_ptrIN13opentelemetry2v15trace14TracerProviderELN9__gnu_cxx12_Lock_policyE2EEC1Ev',
                                          'Param' => {
                                                       '0' => {
                                                                'name' => 'this',
                                                                'type' => '118477'
                                                              }
                                                     },
                                          'ShortName' => '__shared_ptr'
                                        },
                            '126718' => {
                                          'Artificial' => 1,
                                          'Class' => '88229',
                                          'Constructor' => 1,
                                          'Header' => 'shared_ptr.h',
                                          'InLine' => 1,
                                          'Line' => '37',
                                          'MnglName' => '_ZN13opentelemetry2v15nostd10shared_ptrINS0_5trace10NoopTracerEE18shared_ptr_wrapperC2ERKS6_',
                                          'Param' => {
                                                       '0' => {
                                                                'name' => 'this',
                                                                'type' => '119106'
                                                              },
                                                       '1' => {
                                                                'name' => 'p1',
                                                                'type' => '117832'
                                                              }
                                                     },
                                          'Reg' => {
                                                     '0' => 'rdi',
                                                     '1' => 'rsi'
                                                   },
                                          'ShortName' => 'shared_ptr_wrapper'
                                        },
                            '126719' => {
                                          'Artificial' => 1,
                                          'Class' => '88229',
                                          'Constructor' => 1,
                                          'Header' => 'shared_ptr.h',
                                          'InLine' => 1,
                                          'Line' => '37',
                                          'MnglName' => '_ZN13opentelemetry2v15nostd10shared_ptrINS0_5trace10NoopTracerEE18shared_ptr_wrapperC1ERKS6_',
                                          'Param' => {
                                                       '0' => {
                                                                'name' => 'this',
                                                                'type' => '119106'
                                                              },
                                                       '1' => {
                                                                'name' => 'p1',
                                                                'type' => '117832'
                                                              }
                                                     },
                                          'Reg' => {
                                                     '0' => 'rdi',
                                                     '1' => 'rsi'
                                                   },
                                          'ShortName' => 'shared_ptr_wrapper'
                                        },
                            '126959' => {
                                          'Artificial' => 1,
                                          'Class' => '44669',
                                          'Constructor' => 1,
                                          'Header' => 'shared_ptr.h',
                                          'InLine' => 1,
                                          'Line' => '204',
                                          'MnglName' => '_ZNSt10shared_ptrIN13opentelemetry2v15trace10NoopTracerEEC2ERKS4_',
                                          'Param' => {
                                                       '0' => {
                                                                'name' => 'this',
                                                                'type' => '117692'
                                                              },
                                                       '1' => {
                                                                'name' => 'p1',
                                                                'type' => '117697'
                                                              }
                                                     },
                                          'ShortName' => 'shared_ptr'
                                        },
                            '126960' => {
                                          'Artificial' => 1,
                                          'Class' => '44669',
                                          'Constructor' => 1,
                                          'Header' => 'shared_ptr.h',
                                          'InLine' => 1,
                                          'Line' => '204',
                                          'MnglName' => '_ZNSt10shared_ptrIN13opentelemetry2v15trace10NoopTracerEEC1ERKS4_',
                                          'Param' => {
                                                       '0' => {
                                                                'name' => 'this',
                                                                'type' => '117692'
                                                              },
                                                       '1' => {
                                                                'name' => 'p1',
                                                                'type' => '117697'
                                                              }
                                                     },
                                          'ShortName' => 'shared_ptr'
                                        },
                            '127016' => {
                                          'Artificial' => 1,
                                          'Class' => '43689',
                                          'Constructor' => 1,
                                          'Header' => 'shared_ptr_base.h',
                                          'InLine' => 1,
                                          'Line' => '1522',
                                          'MnglName' => '_ZNSt12__shared_ptrIN13opentelemetry2v15trace10NoopTracerELN9__gnu_cxx12_Lock_policyE2EEC2ERKS6_',
                                          'Param' => {
                                                       '0' => {
                                                                'name' => 'this',
                                                                'type' => '117652'
                                                              },
                                                       '1' => {
                                                                'name' => 'p1',
                                                                'type' => '117657'
                                                              }
                                                     },
                                          'ShortName' => '__shared_ptr'
                                        },
                            '127017' => {
                                          'Artificial' => 1,
                                          'Class' => '43689',
                                          'Constructor' => 1,
                                          'Header' => 'shared_ptr_base.h',
                                          'InLine' => 1,
                                          'Line' => '1522',
                                          'MnglName' => '_ZNSt12__shared_ptrIN13opentelemetry2v15trace10NoopTracerELN9__gnu_cxx12_Lock_policyE2EEC1ERKS6_',
                                          'Param' => {
                                                       '0' => {
                                                                'name' => 'this',
                                                                'type' => '117652'
                                                              },
                                                       '1' => {
                                                                'name' => 'p1',
                                                                'type' => '117657'
                                                              }
                                                     },
                                          'ShortName' => '__shared_ptr'
                                        },
                            '130589' => {
                                          'Artificial' => 1,
                                          'Class' => '66176',
                                          'Destructor' => 1,
                                          'Header' => 'noop.h',
                                          'InLine' => 1,
                                          'Line' => '30',
                                          'MnglName' => '_ZN13opentelemetry2v15trace8NoopSpanD0Ev',
                                          'Param' => {
                                                       '0' => {
                                                                'name' => 'this',
                                                                'type' => '119196'
                                                              }
                                                     },
                                          'ShortName' => 'NoopSpan',
                                          'Virt' => 1
                                        },
                            '130590' => {
                                          'Artificial' => 1,
                                          'Class' => '66176',
                                          'Destructor' => 1,
                                          'Header' => 'noop.h',
                                          'InLine' => 1,
                                          'Line' => '30',
                                          'MnglName' => '_ZN13opentelemetry2v15trace8NoopSpanD1Ev',
                                          'Param' => {
                                                       '0' => {
                                                                'name' => 'this',
                                                                'type' => '119196'
                                                              }
                                                     },
                                          'ShortName' => 'NoopSpan',
                                          'Virt' => 1
                                        },
                            '130684' => {
                                          'Artificial' => 1,
                                          'Class' => '66176',
                                          'Destructor' => 1,
                                          'Header' => 'noop.h',
                                          'InLine' => 1,
                                          'Line' => '30',
                                          'MnglName' => '_ZN13opentelemetry2v15trace8NoopSpanD2Ev',
                                          'Param' => {
                                                       '0' => {
                                                                'name' => 'this',
                                                                'type' => '119196'
                                                              }
                                                     },
                                          'ShortName' => 'NoopSpan',
                                          'Virt' => 1
                                        },
                            '131105' => {
                                          'Artificial' => 1,
                                          'Class' => '65967',
                                          'Destructor' => 1,
                                          'Header' => 'noop.h',
                                          'InLine' => 1,
                                          'Line' => '105',
                                          'MnglName' => '_ZN13opentelemetry2v15trace18NoopTracerProviderD0Ev',
                                          'Param' => {
                                                       '0' => {
                                                                'name' => 'this',
                                                                'type' => '119131'
                                                              }
                                                     },
                                          'ShortName' => 'NoopTracerProvider',
                                          'Virt' => 1
                                        },
                            '131106' => {
                                          'Artificial' => 1,
                                          'Class' => '65967',
                                          'Destructor' => 1,
                                          'Header' => 'noop.h',
                                          'InLine' => 1,
                                          'Line' => '105',
                                          'MnglName' => '_ZN13opentelemetry2v15trace18NoopTracerProviderD1Ev',
                                          'Param' => {
                                                       '0' => {
                                                                'name' => 'this',
                                                                'type' => '119131'
                                                              }
                                                     },
                                          'ShortName' => 'NoopTracerProvider',
                                          'Virt' => 1
                                        },
                            '131396' => {
                                          'Artificial' => 1,
                                          'Class' => '65967',
                                          'Destructor' => 1,
                                          'Header' => 'noop.h',
                                          'InLine' => 1,
                                          'Line' => '105',
                                          'MnglName' => '_ZN13opentelemetry2v15trace18NoopTracerProviderD2Ev',
                                          'Param' => {
                                                       '0' => {
                                                                'name' => 'this',
                                                                'type' => '119131'
                                                              }
                                                     },
                                          'ShortName' => 'NoopTracerProvider',
                                          'Virt' => 1
                                        },
                            '131646' => {
                                          'Artificial' => 1,
                                          'Class' => '59518',
                                          'Destructor' => 1,
                                          'Header' => 'shared_ptr_base.h',
                                          'InLine' => 1,
                                          'Line' => '419',
                                          'MnglName' => '_ZNSt15_Sp_counted_ptrIPN13opentelemetry2v15trace10TraceStateELN9__gnu_cxx12_Lock_policyE2EED0Ev',
                                          'Param' => {
                                                       '0' => {
                                                                'name' => 'this',
                                                                'type' => '118972'
                                                              }
                                                     },
                                          'ShortName' => '_Sp_counted_ptr',
                                          'Virt' => 1
                                        },
                            '131647' => {
                                          'Artificial' => 1,
                                          'Class' => '59518',
                                          'Destructor' => 1,
                                          'Header' => 'shared_ptr_base.h',
                                          'InLine' => 1,
                                          'Line' => '419',
                                          'MnglName' => '_ZNSt15_Sp_counted_ptrIPN13opentelemetry2v15trace10TraceStateELN9__gnu_cxx12_Lock_policyE2EED1Ev',
                                          'Param' => {
                                                       '0' => {
                                                                'name' => 'this',
                                                                'type' => '118972'
                                                              }
                                                     },
                                          'ShortName' => '_Sp_counted_ptr',
                                          'Virt' => 1
                                        },
                            '131821' => {
                                          'Artificial' => 1,
                                          'Class' => '59518',
                                          'Destructor' => 1,
                                          'Header' => 'shared_ptr_base.h',
                                          'InLine' => 1,
                                          'Line' => '419',
                                          'MnglName' => '_ZNSt15_Sp_counted_ptrIPN13opentelemetry2v15trace10TraceStateELN9__gnu_cxx12_Lock_policyE2EED2Ev',
                                          'Param' => {
                                                       '0' => {
                                                                'name' => 'this',
                                                                'type' => '118972'
                                                              }
                                                     },
                                          'Reg' => {
                                                     '0' => 'rdi'
                                                   },
                                          'ShortName' => '_Sp_counted_ptr',
                                          'Virt' => 1
                                        },
                            '131948' => {
                                          'Artificial' => 1,
                                          'Class' => '59219',
                                          'Destructor' => 1,
                                          'Header' => 'shared_ptr_base.h',
                                          'InLine' => 1,
                                          'Line' => '419',
                                          'MnglName' => '_ZNSt15_Sp_counted_ptrIPN13opentelemetry2v15trace4SpanELN9__gnu_cxx12_Lock_policyE2EED0Ev',
                                          'Param' => {
                                                       '0' => {
                                                                'name' => 'this',
                                                                'type' => '118952'
                                                              }
                                                     },
                                          'ShortName' => '_Sp_counted_ptr',
                                          'Virt' => 1
                                        },
                            '131949' => {
                                          'Artificial' => 1,
                                          'Class' => '59219',
                                          'Destructor' => 1,
                                          'Header' => 'shared_ptr_base.h',
                                          'InLine' => 1,
                                          'Line' => '419',
                                          'MnglName' => '_ZNSt15_Sp_counted_ptrIPN13opentelemetry2v15trace4SpanELN9__gnu_cxx12_Lock_policyE2EED1Ev',
                                          'Param' => {
                                                       '0' => {
                                                                'name' => 'this',
                                                                'type' => '118952'
                                                              }
                                                     },
                                          'ShortName' => '_Sp_counted_ptr',
                                          'Virt' => 1
                                        },
                            '132123' => {
                                          'Artificial' => 1,
                                          'Class' => '59219',
                                          'Destructor' => 1,
                                          'Header' => 'shared_ptr_base.h',
                                          'InLine' => 1,
                                          'Line' => '419',
                                          'MnglName' => '_ZNSt15_Sp_counted_ptrIPN13opentelemetry2v15trace4SpanELN9__gnu_cxx12_Lock_policyE2EED2Ev',
                                          'Param' => {
                                                       '0' => {
                                                                'name' => 'this',
                                                                'type' => '118952'
                                                              }
                                                     },
                                          'Reg' => {
                                                     '0' => 'rdi'
                                                   },
                                          'ShortName' => '_Sp_counted_ptr',
                                          'Virt' => 1
                                        },
                            '132250' => {
                                          'Artificial' => 1,
                                          'Class' => '58920',
                                          'Destructor' => 1,
                                          'Header' => 'shared_ptr_base.h',
                                          'InLine' => 1,
                                          'Line' => '419',
                                          'MnglName' => '_ZNSt15_Sp_counted_ptrIPN13opentelemetry2v15trace10NoopTracerELN9__gnu_cxx12_Lock_policyE2EED0Ev',
                                          'Param' => {
                                                       '0' => {
                                                                'name' => 'this',
                                                                'type' => '118932'
                                                              }
                                                     },
                                          'ShortName' => '_Sp_counted_ptr',
                                          'Virt' => 1
                                        },
                            '132251' => {
                                          'Artificial' => 1,
                                          'Class' => '58920',
                                          'Destructor' => 1,
                                          'Header' => 'shared_ptr_base.h',
                                          'InLine' => 1,
                                          'Line' => '419',
                                          'MnglName' => '_ZNSt15_Sp_counted_ptrIPN13opentelemetry2v15trace10NoopTracerELN9__gnu_cxx12_Lock_policyE2EED1Ev',
                                          'Param' => {
                                                       '0' => {
                                                                'name' => 'this',
                                                                'type' => '118932'
                                                              }
                                                     },
                                          'ShortName' => '_Sp_counted_ptr',
                                          'Virt' => 1
                                        },
                            '132425' => {
                                          'Artificial' => 1,
                                          'Class' => '58920',
                                          'Destructor' => 1,
                                          'Header' => 'shared_ptr_base.h',
                                          'InLine' => 1,
                                          'Line' => '419',
                                          'MnglName' => '_ZNSt15_Sp_counted_ptrIPN13opentelemetry2v15trace10NoopTracerELN9__gnu_cxx12_Lock_policyE2EED2Ev',
                                          'Param' => {
                                                       '0' => {
                                                                'name' => 'this',
                                                                'type' => '118932'
                                                              }
                                                     },
                                          'Reg' => {
                                                     '0' => 'rdi'
                                                   },
                                          'ShortName' => '_Sp_counted_ptr',
                                          'Virt' => 1
                                        },
                            '132552' => {
                                          'Artificial' => 1,
                                          'Class' => '58621',
                                          'Destructor' => 1,
                                          'Header' => 'shared_ptr_base.h',
                                          'InLine' => 1,
                                          'Line' => '419',
                                          'MnglName' => '_ZNSt15_Sp_counted_ptrIPN13opentelemetry2v15trace14TracerProviderELN9__gnu_cxx12_Lock_policyE2EED0Ev',
                                          'Param' => {
                                                       '0' => {
                                                                'name' => 'this',
                                                                'type' => '118912'
                                                              }
                                                     },
                                          'ShortName' => '_Sp_counted_ptr',
                                          'Virt' => 1
                                        },
                            '132553' => {
                                          'Artificial' => 1,
                                          'Class' => '58621',
                                          'Destructor' => 1,
                                          'Header' => 'shared_ptr_base.h',
                                          'InLine' => 1,
                                          'Line' => '419',
                                          'MnglName' => '_ZNSt15_Sp_counted_ptrIPN13opentelemetry2v15trace14TracerProviderELN9__gnu_cxx12_Lock_policyE2EED1Ev',
                                          'Param' => {
                                                       '0' => {
                                                                'name' => 'this',
                                                                'type' => '118912'
                                                              }
                                                     },
                                          'ShortName' => '_Sp_counted_ptr',
                                          'Virt' => 1
                                        },
                            '132727' => {
                                          'Artificial' => 1,
                                          'Class' => '58621',
                                          'Destructor' => 1,
                                          'Header' => 'shared_ptr_base.h',
                                          'InLine' => 1,
                                          'Line' => '419',
                                          'MnglName' => '_ZNSt15_Sp_counted_ptrIPN13opentelemetry2v15trace14TracerProviderELN9__gnu_cxx12_Lock_policyE2EED2Ev',
                                          'Param' => {
                                                       '0' => {
                                                                'name' => 'this',
                                                                'type' => '118912'
                                                              }
                                                     },
                                          'Reg' => {
                                                     '0' => 'rdi'
                                                   },
                                          'ShortName' => '_Sp_counted_ptr',
                                          'Virt' => 1
                                        },
                            '133892' => {
                                          'Artificial' => 1,
                                          'Class' => '16411',
                                          'Constructor' => 1,
                                          'Header' => 'shared_ptr_base.h',
                                          'InLine' => 1,
                                          'Line' => '129',
                                          'MnglName' => '_ZNSt16_Sp_counted_baseILN9__gnu_cxx12_Lock_policyE2EEC2Ev',
                                          'Param' => {
                                                       '0' => {
                                                                'name' => 'this',
                                                                'type' => '113731'
                                                              }
                                                     },
                                          'ShortName' => '_Sp_counted_base'
                                        },
                            '133893' => {
                                          'Artificial' => 1,
                                          'Class' => '16411',
                                          'Constructor' => 1,
                                          'Header' => 'shared_ptr_base.h',
                                          'InLine' => 1,
                                          'Line' => '129',
                                          'MnglName' => '_ZNSt16_Sp_counted_baseILN9__gnu_cxx12_Lock_policyE2EEC1Ev',
                                          'Param' => {
                                                       '0' => {
                                                                'name' => 'this',
                                                                'type' => '113731'
                                                              }
                                                     },
                                          'ShortName' => '_Sp_counted_base'
                                        },
                            '133952' => {
                                          'Artificial' => 1,
                                          'Class' => '58621',
                                          'Constructor' => 1,
                                          'Header' => 'shared_ptr_base.h',
                                          'InLine' => 1,
                                          'Line' => '423',
                                          'MnglName' => '_ZNSt15_Sp_counted_ptrIPN13opentelemetry2v15trace14TracerProviderELN9__gnu_cxx12_Lock_policyE2EEC2ES4_',
                                          'Param' => {
                                                       '0' => {
                                                                'name' => 'this',
                                                                'type' => '118912'
                                                              },
                                                       '1' => {
                                                                'name' => '__p',
                                                                'type' => '118667'
                                                              }
                                                     },
                                          'ShortName' => '_Sp_counted_ptr'
                                        },
                            '133953' => {
                                          'Artificial' => 1,
                                          'Class' => '58621',
                                          'Constructor' => 1,
                                          'Header' => 'shared_ptr_base.h',
                                          'InLine' => 1,
                                          'Line' => '423',
                                          'MnglName' => '_ZNSt15_Sp_counted_ptrIPN13opentelemetry2v15trace14TracerProviderELN9__gnu_cxx12_Lock_policyE2EEC1ES4_',
                                          'Param' => {
                                                       '0' => {
                                                                'name' => 'this',
                                                                'type' => '118912'
                                                              },
                                                       '1' => {
                                                                'name' => '__p',
                                                                'type' => '118667'
                                                              }
                                                     },
                                          'ShortName' => '_Sp_counted_ptr'
                                        },
                            '134208' => {
                                          'Artificial' => 1,
                                          'Class' => '58920',
                                          'Constructor' => 1,
                                          'Header' => 'shared_ptr_base.h',
                                          'InLine' => 1,
                                          'Line' => '423',
                                          'MnglName' => '_ZNSt15_Sp_counted_ptrIPN13opentelemetry2v15trace10NoopTracerELN9__gnu_cxx12_Lock_policyE2EEC2ES4_',
                                          'Param' => {
                                                       '0' => {
                                                                'name' => 'this',
                                                                'type' => '118932'
                                                              },
                                                       '1' => {
                                                                'name' => '__p',
                                                                'type' => '117557'
                                                              }
                                                     },
                                          'ShortName' => '_Sp_counted_ptr'
                                        },
                            '134209' => {
                                          'Artificial' => 1,
                                          'Class' => '58920',
                                          'Constructor' => 1,
                                          'Header' => 'shared_ptr_base.h',
                                          'InLine' => 1,
                                          'Line' => '423',
                                          'MnglName' => '_ZNSt15_Sp_counted_ptrIPN13opentelemetry2v15trace10NoopTracerELN9__gnu_cxx12_Lock_policyE2EEC1ES4_',
                                          'Param' => {
                                                       '0' => {
                                                                'name' => 'this',
                                                                'type' => '118932'
                                                              },
                                                       '1' => {
                                                                'name' => '__p',
                                                                'type' => '117557'
                                                              }
                                                     },
                                          'ShortName' => '_Sp_counted_ptr'
                                        },
                            '134416' => {
                                          'Artificial' => 1,
                                          'Class' => '59219',
                                          'Constructor' => 1,
                                          'Header' => 'shared_ptr_base.h',
                                          'InLine' => 1,
                                          'Line' => '423',
                                          'MnglName' => '_ZNSt15_Sp_counted_ptrIPN13opentelemetry2v15trace4SpanELN9__gnu_cxx12_Lock_policyE2EEC2ES4_',
                                          'Param' => {
                                                       '0' => {
                                                                'name' => 'this',
                                                                'type' => '118952'
                                                              },
                                                       '1' => {
                                                                'name' => '__p',
                                                                'type' => '115929'
                                                              }
                                                     },
                                          'ShortName' => '_Sp_counted_ptr'
                                        },
                            '134417' => {
                                          'Artificial' => 1,
                                          'Class' => '59219',
                                          'Constructor' => 1,
                                          'Header' => 'shared_ptr_base.h',
                                          'InLine' => 1,
                                          'Line' => '423',
                                          'MnglName' => '_ZNSt15_Sp_counted_ptrIPN13opentelemetry2v15trace4SpanELN9__gnu_cxx12_Lock_policyE2EEC1ES4_',
                                          'Param' => {
                                                       '0' => {
                                                                'name' => 'this',
                                                                'type' => '118952'
                                                              },
                                                       '1' => {
                                                                'name' => '__p',
                                                                'type' => '115929'
                                                              }
                                                     },
                                          'ShortName' => '_Sp_counted_ptr'
                                        },
                            '134481' => {
                                          'Artificial' => 1,
                                          'Class' => '59518',
                                          'Constructor' => 1,
                                          'Header' => 'shared_ptr_base.h',
                                          'InLine' => 1,
                                          'Line' => '423',
                                          'MnglName' => '_ZNSt15_Sp_counted_ptrIPN13opentelemetry2v15trace10TraceStateELN9__gnu_cxx12_Lock_policyE2EEC2ES4_',
                                          'Param' => {
                                                       '0' => {
                                                                'name' => 'this',
                                                                'type' => '118972'
                                                              },
                                                       '1' => {
                                                                'name' => '__p',
                                                                'type' => '114693'
                                                              }
                                                     },
                                          'ShortName' => '_Sp_counted_ptr'
                                        },
                            '134482' => {
                                          'Artificial' => 1,
                                          'Class' => '59518',
                                          'Constructor' => 1,
                                          'Header' => 'shared_ptr_base.h',
                                          'InLine' => 1,
                                          'Line' => '423',
                                          'MnglName' => '_ZNSt15_Sp_counted_ptrIPN13opentelemetry2v15trace10TraceStateELN9__gnu_cxx12_Lock_policyE2EEC1ES4_',
                                          'Param' => {
                                                       '0' => {
                                                                'name' => 'this',
                                                                'type' => '118972'
                                                              },
                                                       '1' => {
                                                                'name' => '__p',
                                                                'type' => '114693'
                                                              }
                                                     },
                                          'ShortName' => '_Sp_counted_ptr'
                                        },
                            '134555' => {
                                          'Artificial' => 1,
                                          'Class' => '15146',
                                          'Constructor' => 1,
                                          'Header' => 'shared_ptr_base.h',
                                          'InLine' => 1,
                                          'Line' => '913',
                                          'MnglName' => '_ZNSt14__shared_countILN9__gnu_cxx12_Lock_policyE2EEC2IPN13opentelemetry2v15trace14TracerProviderEEET_',
                                          'Param' => {
                                                       '0' => {
                                                                'name' => 'this',
                                                                'type' => '113701'
                                                              },
                                                       '1' => {
                                                                'name' => '__p',
                                                                'type' => '118667'
                                                              }
                                                     },
                                          'Reg' => {
                                                     '1' => 'rbp'
                                                   },
                                          'ShortName' => '__shared_count<opentelemetry::v1::trace::TracerProvider*>',
                                          'TParam' => {
                                                        '0' => {
                                                                 'key' => '_Ptr',
                                                                 'type' => '118667'
                                                               }
                                                      }
                                        },
                            '134556' => {
                                          'Artificial' => 1,
                                          'Class' => '15146',
                                          'Constructor' => 1,
                                          'Header' => 'shared_ptr_base.h',
                                          'InLine' => 1,
                                          'Line' => '913',
                                          'MnglName' => '_ZNSt14__shared_countILN9__gnu_cxx12_Lock_policyE2EEC1IPN13opentelemetry2v15trace14TracerProviderEEET_',
                                          'Param' => {
                                                       '0' => {
                                                                'name' => 'this',
                                                                'type' => '113701'
                                                              },
                                                       '1' => {
                                                                'name' => '__p',
                                                                'type' => '118667'
                                                              }
                                                     },
                                          'Reg' => {
                                                     '1' => 'rbp'
                                                   },
                                          'ShortName' => '__shared_count<opentelemetry::v1::trace::TracerProvider*>',
                                          'TParam' => {
                                                        '0' => {
                                                                 'key' => '_Ptr',
                                                                 'type' => '118667'
                                                               }
                                                      }
                                        },
                            '134930' => {
                                          'Artificial' => 1,
                                          'Class' => '42193',
                                          'Constructor' => 1,
                                          'Header' => 'shared_ptr_base.h',
                                          'InLine' => 1,
                                          'Line' => '1531',
                                          'MnglName' => '_ZNSt12__shared_ptrIN13opentelemetry2v15trace6TracerELN9__gnu_cxx12_Lock_policyE2EEC2EOS6_',
                                          'Param' => {
                                                       '0' => {
                                                                'name' => 'this',
                                                                'type' => '117422'
                                                              },
                                                       '1' => {
                                                                'name' => '__r',
                                                                'type' => '117437'
                                                              }
                                                     },
                                          'ShortName' => '__shared_ptr'
                                        },
                            '134931' => {
                                          'Artificial' => 1,
                                          'Class' => '42193',
                                          'Constructor' => 1,
                                          'Header' => 'shared_ptr_base.h',
                                          'InLine' => 1,
                                          'Line' => '1531',
                                          'MnglName' => '_ZNSt12__shared_ptrIN13opentelemetry2v15trace6TracerELN9__gnu_cxx12_Lock_policyE2EEC1EOS6_',
                                          'Param' => {
                                                       '0' => {
                                                                'name' => 'this',
                                                                'type' => '117422'
                                                              },
                                                       '1' => {
                                                                'name' => '__r',
                                                                'type' => '117437'
                                                              }
                                                     },
                                          'ShortName' => '__shared_ptr'
                                        },
                            '135091' => {
                                          'Artificial' => 1,
                                          'Class' => '15146',
                                          'Constructor' => 1,
                                          'Header' => 'shared_ptr_base.h',
                                          'InLine' => 1,
                                          'Line' => '913',
                                          'MnglName' => '_ZNSt14__shared_countILN9__gnu_cxx12_Lock_policyE2EEC2IPN13opentelemetry2v15trace10NoopTracerEEET_',
                                          'Param' => {
                                                       '0' => {
                                                                'name' => 'this',
                                                                'type' => '113701'
                                                              },
                                                       '1' => {
                                                                'name' => '__p',
                                                                'type' => '117557'
                                                              }
                                                     },
                                          'Reg' => {
                                                     '1' => 'rbp'
                                                   },
                                          'ShortName' => '__shared_count<opentelemetry::v1::trace::NoopTracer*>',
                                          'TParam' => {
                                                        '0' => {
                                                                 'key' => '_Ptr',
                                                                 'type' => '117557'
                                                               }
                                                      }
                                        },
                            '135092' => {
                                          'Artificial' => 1,
                                          'Class' => '15146',
                                          'Constructor' => 1,
                                          'Header' => 'shared_ptr_base.h',
                                          'InLine' => 1,
                                          'Line' => '913',
                                          'MnglName' => '_ZNSt14__shared_countILN9__gnu_cxx12_Lock_policyE2EEC1IPN13opentelemetry2v15trace10NoopTracerEEET_',
                                          'Param' => {
                                                       '0' => {
                                                                'name' => 'this',
                                                                'type' => '113701'
                                                              },
                                                       '1' => {
                                                                'name' => '__p',
                                                                'type' => '117557'
                                                              }
                                                     },
                                          'Reg' => {
                                                     '1' => 'rbp'
                                                   },
                                          'ShortName' => '__shared_count<opentelemetry::v1::trace::NoopTracer*>',
                                          'TParam' => {
                                                        '0' => {
                                                                 'key' => '_Ptr',
                                                                 'type' => '117557'
                                                               }
                                                      }
                                        },
                            '135416' => {
                                          'Artificial' => 1,
                                          'Class' => '64849',
                                          'Destructor' => 1,
                                          'Header' => 'noop.h',
                                          'InLine' => 1,
                                          'Line' => '79',
                                          'MnglName' => '_ZN13opentelemetry2v15trace10NoopTracerD0Ev',
                                          'Param' => {
                                                       '0' => {
                                                                'name' => 'this',
                                                                'type' => '117562'
                                                              }
                                                     },
                                          'ShortName' => 'NoopTracer',
                                          'Virt' => 1
                                        },
                            '135417' => {
                                          'Artificial' => 1,
                                          'Class' => '64849',
                                          'Destructor' => 1,
                                          'Header' => 'noop.h',
                                          'InLine' => 1,
                                          'Line' => '79',
                                          'MnglName' => '_ZN13opentelemetry2v15trace10NoopTracerD1Ev',
                                          'Param' => {
                                                       '0' => {
                                                                'name' => 'this',
                                                                'type' => '117562'
                                                              }
                                                     },
                                          'ShortName' => 'NoopTracer',
                                          'Virt' => 1
                                        },
                            '135510' => {
                                          'Artificial' => 1,
                                          'Class' => '64849',
                                          'Destructor' => 1,
                                          'Header' => 'noop.h',
                                          'InLine' => 1,
                                          'Line' => '79',
                                          'MnglName' => '_ZN13opentelemetry2v15trace10NoopTracerD2Ev',
                                          'Param' => {
                                                       '0' => {
                                                                'name' => 'this',
                                                                'type' => '117562'
                                                              }
                                                     },
                                          'ShortName' => 'NoopTracer',
                                          'Virt' => 1
                                        },
                            '136605' => {
                                          'Artificial' => 1,
                                          'Class' => '15146',
                                          'Constructor' => 1,
                                          'Header' => 'shared_ptr_base.h',
                                          'InLine' => 1,
                                          'Line' => '913',
                                          'MnglName' => '_ZNSt14__shared_countILN9__gnu_cxx12_Lock_policyE2EEC2IPN13opentelemetry2v15trace4SpanEEET_',
                                          'Param' => {
                                                       '0' => {
                                                                'name' => 'this',
                                                                'type' => '113701'
                                                              },
                                                       '1' => {
                                                                'name' => '__p',
                                                                'type' => '115929'
                                                              }
                                                     },
                                          'Reg' => {
                                                     '1' => 'rbp'
                                                   },
                                          'ShortName' => '__shared_count<opentelemetry::v1::trace::Span*>',
                                          'TParam' => {
                                                        '0' => {
                                                                 'key' => '_Ptr',
                                                                 'type' => '115929'
                                                               }
                                                      }
                                        },
                            '136606' => {
                                          'Artificial' => 1,
                                          'Class' => '15146',
                                          'Constructor' => 1,
                                          'Header' => 'shared_ptr_base.h',
                                          'InLine' => 1,
                                          'Line' => '913',
                                          'MnglName' => '_ZNSt14__shared_countILN9__gnu_cxx12_Lock_policyE2EEC1IPN13opentelemetry2v15trace4SpanEEET_',
                                          'Param' => {
                                                       '0' => {
                                                                'name' => 'this',
                                                                'type' => '113701'
                                                              },
                                                       '1' => {
                                                                'name' => '__p',
                                                                'type' => '115929'
                                                              }
                                                     },
                                          'Reg' => {
                                                     '1' => 'rbp'
                                                   },
                                          'ShortName' => '__shared_count<opentelemetry::v1::trace::Span*>',
                                          'TParam' => {
                                                        '0' => {
                                                                 'key' => '_Ptr',
                                                                 'type' => '115929'
                                                               }
                                                      }
                                        },
                            '136937' => {
                                          'Artificial' => 1,
                                          'Class' => '15146',
                                          'Constructor' => 1,
                                          'Header' => 'shared_ptr_base.h',
                                          'InLine' => 1,
                                          'Line' => '913',
                                          'MnglName' => '_ZNSt14__shared_countILN9__gnu_cxx12_Lock_policyE2EEC2IPN13opentelemetry2v15trace10TraceStateEEET_',
                                          'Param' => {
                                                       '0' => {
                                                                'name' => 'this',
                                                                'type' => '113701'
                                                              },
                                                       '1' => {
                                                                'name' => '__p',
                                                                'type' => '114693'
                                                              }
                                                     },
                                          'Reg' => {
                                                     '1' => 'rbp'
                                                   },
                                          'ShortName' => '__shared_count<opentelemetry::v1::trace::TraceState*>',
                                          'TParam' => {
                                                        '0' => {
                                                                 'key' => '_Ptr',
                                                                 'type' => '114693'
                                                               }
                                                      }
                                        },
                            '136938' => {
                                          'Artificial' => 1,
                                          'Class' => '15146',
                                          'Constructor' => 1,
                                          'Header' => 'shared_ptr_base.h',
                                          'InLine' => 1,
                                          'Line' => '913',
                                          'MnglName' => '_ZNSt14__shared_countILN9__gnu_cxx12_Lock_policyE2EEC1IPN13opentelemetry2v15trace10TraceStateEEET_',
                                          'Param' => {
                                                       '0' => {
                                                                'name' => 'this',
                                                                'type' => '113701'
                                                              },
                                                       '1' => {
                                                                'name' => '__p',
                                                                'type' => '114693'
                                                              }
                                                     },
                                          'Reg' => {
                                                     '1' => 'rbp'
                                                   },
                                          'ShortName' => '__shared_count<opentelemetry::v1::trace::TraceState*>',
                                          'TParam' => {
                                                        '0' => {
                                                                 'key' => '_Ptr',
                                                                 'type' => '114693'
                                                               }
                                                      }
                                        },
                            '137446' => {
                                          'Artificial' => 1,
                                          'Class' => '62092',
                                          'Destructor' => 1,
                                          'Header' => 'trace_state.h',
                                          'InLine' => 1,
                                          'Line' => '32',
                                          'MnglName' => '_ZN13opentelemetry2v15trace10TraceStateD2Ev',
                                          'Param' => {
                                                       '0' => {
                                                                'name' => 'this',
                                                                'type' => '114698'
                                                              }
                                                     },
                                          'ShortName' => 'TraceState'
                                        },
                            '137447' => {
                                          'Artificial' => 1,
                                          'Class' => '62092',
                                          'Destructor' => 1,
                                          'Header' => 'trace_state.h',
                                          'InLine' => 1,
                                          'Line' => '32',
                                          'MnglName' => '_ZN13opentelemetry2v15trace10TraceStateD0Ev',
                                          'Param' => {
                                                       '0' => {
                                                                'name' => 'this',
                                                                'type' => '114698'
                                                              }
                                                     },
                                          'ShortName' => 'TraceState'
                                        },
                            '137506' => {
                                          'Artificial' => 1,
                                          'Class' => '54328',
                                          'Constructor' => 1,
                                          'Header' => 'shared_ptr_base.h',
                                          'InLine' => 1,
                                          'Line' => '1531',
                                          'MnglName' => '_ZNSt12__shared_ptrIN13opentelemetry2v15trace14TracerProviderELN9__gnu_cxx12_Lock_policyE2EEC2EOS6_',
                                          'Param' => {
                                                       '0' => {
                                                                'name' => 'this',
                                                                'type' => '118477'
                                                              },
                                                       '1' => {
                                                                'name' => '__r',
                                                                'type' => '118492'
                                                              }
                                                     },
                                          'ShortName' => '__shared_ptr'
                                        },
                            '137507' => {
                                          'Artificial' => 1,
                                          'Class' => '54328',
                                          'Constructor' => 1,
                                          'Header' => 'shared_ptr_base.h',
                                          'InLine' => 1,
                                          'Line' => '1531',
                                          'MnglName' => '_ZNSt12__shared_ptrIN13opentelemetry2v15trace14TracerProviderELN9__gnu_cxx12_Lock_policyE2EEC1EOS6_',
                                          'Param' => {
                                                       '0' => {
                                                                'name' => 'this',
                                                                'type' => '118477'
                                                              },
                                                       '1' => {
                                                                'name' => '__r',
                                                                'type' => '118492'
                                                              }
                                                     },
                                          'ShortName' => '__shared_ptr'
                                        },
                            '137632' => {
                                          'Artificial' => 1,
                                          'Class' => '15146',
                                          'Constructor' => 1,
                                          'Header' => 'shared_ptr_base.h',
                                          'InLine' => 1,
                                          'Line' => '927',
                                          'MnglName' => '_ZNSt14__shared_countILN9__gnu_cxx12_Lock_policyE2EEC2IPN13opentelemetry2v15trace14TracerProviderEEET_St17integral_constantIbLb0EE',
                                          'Param' => {
                                                       '0' => {
                                                                'name' => 'this',
                                                                'type' => '113701'
                                                              },
                                                       '1' => {
                                                                'name' => '__p',
                                                                'type' => '118667'
                                                              },
                                                       '2' => {
                                                                'name' => 'p2',
                                                                'type' => '1240'
                                                              }
                                                     },
                                          'ShortName' => '__shared_count<opentelemetry::v1::trace::TracerProvider*>',
                                          'TParam' => {
                                                        '0' => {
                                                                 'key' => '_Ptr',
                                                                 'type' => '118667'
                                                               }
                                                      }
                                        },
                            '137633' => {
                                          'Artificial' => 1,
                                          'Class' => '15146',
                                          'Constructor' => 1,
                                          'Header' => 'shared_ptr_base.h',
                                          'InLine' => 1,
                                          'Line' => '927',
                                          'MnglName' => '_ZNSt14__shared_countILN9__gnu_cxx12_Lock_policyE2EEC1IPN13opentelemetry2v15trace14TracerProviderEEET_St17integral_constantIbLb0EE',
                                          'Param' => {
                                                       '0' => {
                                                                'name' => 'this',
                                                                'type' => '113701'
                                                              },
                                                       '1' => {
                                                                'name' => '__p',
                                                                'type' => '118667'
                                                              },
                                                       '2' => {
                                                                'name' => 'p2',
                                                                'type' => '1240'
                                                              }
                                                     },
                                          'ShortName' => '__shared_count<opentelemetry::v1::trace::TracerProvider*>',
                                          'TParam' => {
                                                        '0' => {
                                                                 'key' => '_Ptr',
                                                                 'type' => '118667'
                                                               }
                                                      }
                                        },
                            '137760' => {
                                          'Artificial' => 1,
                                          'Class' => '42827',
                                          'Constructor' => 1,
                                          'Header' => 'shared_ptr.h',
                                          'InLine' => 1,
                                          'Line' => '359',
                                          'MnglName' => '_ZNSt10shared_ptrIN13opentelemetry2v15trace6TracerEEC2EOS4_',
                                          'Param' => {
                                                       '0' => {
                                                                'name' => 'this',
                                                                'type' => '117467'
                                                              },
                                                       '1' => {
                                                                'name' => '__r',
                                                                'type' => '117477'
                                                              }
                                                     },
                                          'ShortName' => 'shared_ptr'
                                        },
                            '137761' => {
                                          'Artificial' => 1,
                                          'Class' => '42827',
                                          'Constructor' => 1,
                                          'Header' => 'shared_ptr.h',
                                          'InLine' => 1,
                                          'Line' => '359',
                                          'MnglName' => '_ZNSt10shared_ptrIN13opentelemetry2v15trace6TracerEEC1EOS4_',
                                          'Param' => {
                                                       '0' => {
                                                                'name' => 'this',
                                                                'type' => '117467'
                                                              },
                                                       '1' => {
                                                                'name' => '__r',
                                                                'type' => '117477'
                                                              }
                                                     },
                                          'ShortName' => 'shared_ptr'
                                        },
                            '137825' => {
                                          'Artificial' => 1,
                                          'Class' => '43689',
                                          'Constructor' => 1,
                                          'Header' => 'shared_ptr_base.h',
                                          'InLine' => 1,
                                          'Line' => '1531',
                                          'MnglName' => '_ZNSt12__shared_ptrIN13opentelemetry2v15trace10NoopTracerELN9__gnu_cxx12_Lock_policyE2EEC2EOS6_',
                                          'Param' => {
                                                       '0' => {
                                                                'name' => 'this',
                                                                'type' => '117652'
                                                              },
                                                       '1' => {
                                                                'name' => '__r',
                                                                'type' => '117667'
                                                              }
                                                     },
                                          'ShortName' => '__shared_ptr'
                                        },
                            '137826' => {
                                          'Artificial' => 1,
                                          'Class' => '43689',
                                          'Constructor' => 1,
                                          'Header' => 'shared_ptr_base.h',
                                          'InLine' => 1,
                                          'Line' => '1531',
                                          'MnglName' => '_ZNSt12__shared_ptrIN13opentelemetry2v15trace10NoopTracerELN9__gnu_cxx12_Lock_policyE2EEC1EOS6_',
                                          'Param' => {
                                                       '0' => {
                                                                'name' => 'this',
                                                                'type' => '117652'
                                                              },
                                                       '1' => {
                                                                'name' => '__r',
                                                                'type' => '117667'
                                                              }
                                                     },
                                          'ShortName' => '__shared_ptr'
                                        },
                            '137975' => {
                                          'Artificial' => 1,
                                          'Class' => '15146',
                                          'Constructor' => 1,
                                          'Header' => 'shared_ptr_base.h',
                                          'InLine' => 1,
                                          'Line' => '927',
                                          'MnglName' => '_ZNSt14__shared_countILN9__gnu_cxx12_Lock_policyE2EEC2IPN13opentelemetry2v15trace10NoopTracerEEET_St17integral_constantIbLb0EE',
                                          'Param' => {
                                                       '0' => {
                                                                'name' => 'this',
                                                                'type' => '113701'
                                                              },
                                                       '1' => {
                                                                'name' => '__p',
                                                                'type' => '117557'
                                                              },
                                                       '2' => {
                                                                'name' => 'p2',
                                                                'type' => '1240'
                                                              }
                                                     },
                                          'ShortName' => '__shared_count<opentelemetry::v1::trace::NoopTracer*>',
                                          'TParam' => {
                                                        '0' => {
                                                                 'key' => '_Ptr',
                                                                 'type' => '117557'
                                                               }
                                                      }
                                        },
                            '137976' => {
                                          'Artificial' => 1,
                                          'Class' => '15146',
                                          'Constructor' => 1,
                                          'Header' => 'shared_ptr_base.h',
                                          'InLine' => 1,
                                          'Line' => '927',
                                          'MnglName' => '_ZNSt14__shared_countILN9__gnu_cxx12_Lock_policyE2EEC1IPN13opentelemetry2v15trace10NoopTracerEEET_St17integral_constantIbLb0EE',
                                          'Param' => {
                                                       '0' => {
                                                                'name' => 'this',
                                                                'type' => '113701'
                                                              },
                                                       '1' => {
                                                                'name' => '__p',
                                                                'type' => '117557'
                                                              },
                                                       '2' => {
                                                                'name' => 'p2',
                                                                'type' => '1240'
                                                              }
                                                     },
                                          'ShortName' => '__shared_count<opentelemetry::v1::trace::NoopTracer*>',
                                          'TParam' => {
                                                        '0' => {
                                                                 'key' => '_Ptr',
                                                                 'type' => '117557'
                                                               }
                                                      }
                                        },
                            '138054' => {
                                          'Artificial' => 1,
                                          'Class' => '15146',
                                          'Constructor' => 1,
                                          'Header' => 'shared_ptr_base.h',
                                          'InLine' => 1,
                                          'Line' => '1241',
                                          'MnglName' => '_ZNSt14__shared_countILN9__gnu_cxx12_Lock_policyE2EEC2ERKSt12__weak_countILS1_2EE',
                                          'Param' => {
                                                       '0' => {
                                                                'name' => 'this',
                                                                'type' => '113701'
                                                              },
                                                       '1' => {
                                                                'name' => '__r',
                                                                'type' => '113706'
                                                              }
                                                     },
                                          'ShortName' => '__shared_count'
                                        },
                            '138055' => {
                                          'Artificial' => 1,
                                          'Class' => '15146',
                                          'Constructor' => 1,
                                          'Header' => 'shared_ptr_base.h',
                                          'InLine' => 1,
                                          'Line' => '1241',
                                          'MnglName' => '_ZNSt14__shared_countILN9__gnu_cxx12_Lock_policyE2EEC1ERKSt12__weak_countILS1_2EE',
                                          'Param' => {
                                                       '0' => {
                                                                'name' => 'this',
                                                                'type' => '113701'
                                                              },
                                                       '1' => {
                                                                'name' => '__r',
                                                                'type' => '113706'
                                                              }
                                                     },
                                          'ShortName' => '__shared_count'
                                        },
                            '138331' => {
                                          'Artificial' => 1,
                                          'Class' => '31540',
                                          'Constructor' => 1,
                                          'Header' => 'shared_ptr_base.h',
                                          'InLine' => 1,
                                          'Line' => '1531',
                                          'MnglName' => '_ZNSt12__shared_ptrIN13opentelemetry2v15trace4SpanELN9__gnu_cxx12_Lock_policyE2EEC2EOS6_',
                                          'Param' => {
                                                       '0' => {
                                                                'name' => 'this',
                                                                'type' => '115589'
                                                              },
                                                       '1' => {
                                                                'name' => '__r',
                                                                'type' => '115604'
                                                              }
                                                     },
                                          'ShortName' => '__shared_ptr'
                                        },
                            '138332' => {
                                          'Artificial' => 1,
                                          'Class' => '31540',
                                          'Constructor' => 1,
                                          'Header' => 'shared_ptr_base.h',
                                          'InLine' => 1,
                                          'Line' => '1531',
                                          'MnglName' => '_ZNSt12__shared_ptrIN13opentelemetry2v15trace4SpanELN9__gnu_cxx12_Lock_policyE2EEC1EOS6_',
                                          'Param' => {
                                                       '0' => {
                                                                'name' => 'this',
                                                                'type' => '115589'
                                                              },
                                                       '1' => {
                                                                'name' => '__r',
                                                                'type' => '115604'
                                                              }
                                                     },
                                          'ShortName' => '__shared_ptr'
                                        },
                            '138457' => {
                                          'Artificial' => 1,
                                          'Class' => '15146',
                                          'Constructor' => 1,
                                          'Header' => 'shared_ptr_base.h',
                                          'InLine' => 1,
                                          'Line' => '927',
                                          'MnglName' => '_ZNSt14__shared_countILN9__gnu_cxx12_Lock_policyE2EEC2IPN13opentelemetry2v15trace4SpanEEET_St17integral_constantIbLb0EE',
                                          'Param' => {
                                                       '0' => {
                                                                'name' => 'this',
                                                                'type' => '113701'
                                                              },
                                                       '1' => {
                                                                'name' => '__p',
                                                                'type' => '115929'
                                                              },
                                                       '2' => {
                                                                'name' => 'p2',
                                                                'type' => '1240'
                                                              }
                                                     },
                                          'ShortName' => '__shared_count<opentelemetry::v1::trace::Span*>',
                                          'TParam' => {
                                                        '0' => {
                                                                 'key' => '_Ptr',
                                                                 'type' => '115929'
                                                               }
                                                      }
                                        },
                            '138458' => {
                                          'Artificial' => 1,
                                          'Class' => '15146',
                                          'Constructor' => 1,
                                          'Header' => 'shared_ptr_base.h',
                                          'InLine' => 1,
                                          'Line' => '927',
                                          'MnglName' => '_ZNSt14__shared_countILN9__gnu_cxx12_Lock_policyE2EEC1IPN13opentelemetry2v15trace4SpanEEET_St17integral_constantIbLb0EE',
                                          'Param' => {
                                                       '0' => {
                                                                'name' => 'this',
                                                                'type' => '113701'
                                                              },
                                                       '1' => {
                                                                'name' => '__p',
                                                                'type' => '115929'
                                                              },
                                                       '2' => {
                                                                'name' => 'p2',
                                                                'type' => '1240'
                                                              }
                                                     },
                                          'ShortName' => '__shared_count<opentelemetry::v1::trace::Span*>',
                                          'TParam' => {
                                                        '0' => {
                                                                 'key' => '_Ptr',
                                                                 'type' => '115929'
                                                               }
                                                      }
                                        },
                            '138536' => {
                                          'Artificial' => 1,
                                          'Class' => '21202',
                                          'Constructor' => 1,
                                          'Header' => 'shared_ptr_base.h',
                                          'InLine' => 1,
                                          'Line' => '1531',
                                          'MnglName' => '_ZNSt12__shared_ptrIN13opentelemetry2v15trace10TraceStateELN9__gnu_cxx12_Lock_policyE2EEC2EOS6_',
                                          'Param' => {
                                                       '0' => {
                                                                'name' => 'this',
                                                                'type' => '114723'
                                                              },
                                                       '1' => {
                                                                'name' => '__r',
                                                                'type' => '114738'
                                                              }
                                                     },
                                          'ShortName' => '__shared_ptr'
                                        },
                            '138537' => {
                                          'Artificial' => 1,
                                          'Class' => '21202',
                                          'Constructor' => 1,
                                          'Header' => 'shared_ptr_base.h',
                                          'InLine' => 1,
                                          'Line' => '1531',
                                          'MnglName' => '_ZNSt12__shared_ptrIN13opentelemetry2v15trace10TraceStateELN9__gnu_cxx12_Lock_policyE2EEC1EOS6_',
                                          'Param' => {
                                                       '0' => {
                                                                'name' => 'this',
                                                                'type' => '114723'
                                                              },
                                                       '1' => {
                                                                'name' => '__r',
                                                                'type' => '114738'
                                                              }
                                                     },
                                          'ShortName' => '__shared_ptr'
                                        },
                            '138662' => {
                                          'Artificial' => 1,
                                          'Class' => '15146',
                                          'Constructor' => 1,
                                          'Header' => 'shared_ptr_base.h',
                                          'InLine' => 1,
                                          'Line' => '927',
                                          'MnglName' => '_ZNSt14__shared_countILN9__gnu_cxx12_Lock_policyE2EEC2IPN13opentelemetry2v15trace10TraceStateEEET_St17integral_constantIbLb0EE',
                                          'Param' => {
                                                       '0' => {
                                                                'name' => 'this',
                                                                'type' => '113701'
                                                              },
                                                       '1' => {
                                                                'name' => '__p',
                                                                'type' => '114693'
                                                              },
                                                       '2' => {
                                                                'name' => 'p2',
                                                                'type' => '1240'
                                                              }
                                                     },
                                          'ShortName' => '__shared_count<opentelemetry::v1::trace::TraceState*>',
                                          'TParam' => {
                                                        '0' => {
                                                                 'key' => '_Ptr',
                                                                 'type' => '114693'
                                                               }
                                                      }
                                        },
                            '138663' => {
                                          'Artificial' => 1,
                                          'Class' => '15146',
                                          'Constructor' => 1,
                                          'Header' => 'shared_ptr_base.h',
                                          'InLine' => 1,
                                          'Line' => '927',
                                          'MnglName' => '_ZNSt14__shared_countILN9__gnu_cxx12_Lock_policyE2EEC1IPN13opentelemetry2v15trace10TraceStateEEET_St17integral_constantIbLb0EE',
                                          'Param' => {
                                                       '0' => {
                                                                'name' => 'this',
                                                                'type' => '113701'
                                                              },
                                                       '1' => {
                                                                'name' => '__p',
                                                                'type' => '114693'
                                                              },
                                                       '2' => {
                                                                'name' => 'p2',
                                                                'type' => '1240'
                                                              }
                                                     },
                                          'ShortName' => '__shared_count<opentelemetry::v1::trace::TraceState*>',
                                          'TParam' => {
                                                        '0' => {
                                                                 'key' => '_Ptr',
                                                                 'type' => '114693'
                                                               }
                                                      }
                                        },
                            '138789' => {
                                          'Artificial' => 1,
                                          'Class' => '55012',
                                          'Constructor' => 1,
                                          'Header' => 'shared_ptr.h',
                                          'InLine' => 1,
                                          'Line' => '359',
                                          'MnglName' => '_ZNSt10shared_ptrIN13opentelemetry2v15trace14TracerProviderEEC2EOS4_',
                                          'Param' => {
                                                       '0' => {
                                                                'name' => 'this',
                                                                'type' => '118522'
                                                              },
                                                       '1' => {
                                                                'name' => '__r',
                                                                'type' => '118532'
                                                              }
                                                     },
                                          'ShortName' => 'shared_ptr'
                                        },
                            '138790' => {
                                          'Artificial' => 1,
                                          'Class' => '55012',
                                          'Constructor' => 1,
                                          'Header' => 'shared_ptr.h',
                                          'InLine' => 1,
                                          'Line' => '359',
                                          'MnglName' => '_ZNSt10shared_ptrIN13opentelemetry2v15trace14TracerProviderEEC1EOS4_',
                                          'Param' => {
                                                       '0' => {
                                                                'name' => 'this',
                                                                'type' => '118522'
                                                              },
                                                       '1' => {
                                                                'name' => '__r',
                                                                'type' => '118532'
                                                              }
                                                     },
                                          'ShortName' => 'shared_ptr'
                                        },
                            '138863' => {
                                          'Artificial' => 1,
                                          'Class' => '54328',
                                          'Constructor' => 1,
                                          'Header' => 'shared_ptr_base.h',
                                          'InLine' => 1,
                                          'Line' => '1468',
                                          'MnglName' => '_ZNSt12__shared_ptrIN13opentelemetry2v15trace14TracerProviderELN9__gnu_cxx12_Lock_policyE2EEC2IS3_vEEPT_',
                                          'Param' => {
                                                       '0' => {
                                                                'name' => 'this',
                                                                'type' => '118477'
                                                              },
                                                       '1' => {
                                                                'name' => '__p',
                                                                'type' => '118667'
                                                              }
                                                     },
                                          'ShortName' => '__shared_ptr<opentelemetry::v1::trace::TracerProvider>',
                                          'TParam' => {
                                                        '0' => {
                                                                 'key' => '_Yp',
                                                                 'type' => '65215'
                                                               }
                                                      }
                                        },
                            '138864' => {
                                          'Artificial' => 1,
                                          'Class' => '54328',
                                          'Constructor' => 1,
                                          'Header' => 'shared_ptr_base.h',
                                          'InLine' => 1,
                                          'Line' => '1468',
                                          'MnglName' => '_ZNSt12__shared_ptrIN13opentelemetry2v15trace14TracerProviderELN9__gnu_cxx12_Lock_policyE2EEC1IS3_vEEPT_',
                                          'Param' => {
                                                       '0' => {
                                                                'name' => 'this',
                                                                'type' => '118477'
                                                              },
                                                       '1' => {
                                                                'name' => '__p',
                                                                'type' => '118667'
                                                              }
                                                     },
                                          'ShortName' => '__shared_ptr<opentelemetry::v1::trace::TracerProvider>',
                                          'TParam' => {
                                                        '0' => {
                                                                 'key' => '_Yp',
                                                                 'type' => '65215'
                                                               }
                                                      }
                                        },
                            '139007' => {
                                          'Artificial' => 1,
                                          'Class' => '27102',
                                          'Constructor' => 1,
                                          'Header' => 'chrono.h',
                                          'InLine' => 1,
                                          'Line' => '513',
                                          'MnglName' => '_ZNSt6chrono8durationIlSt5ratioILl1ELl1000EEEC2IlS1_ILl1ELl1EEvEERKNS0_IT_T0_EE',
                                          'Param' => {
                                                       '0' => {
                                                                'name' => 'this',
                                                                'type' => '115228'
                                                              },
                                                       '1' => {
                                                                'name' => '__d',
                                                                'type' => '115198'
                                                              }
                                                     },
                                          'Reg' => {
                                                     '0' => 'rdi',
                                                     '1' => 'rsi'
                                                   },
                                          'ShortName' => 'duration<long, std::ratio<1l, 1l> >',
                                          'TParam' => {
                                                        '0' => {
                                                                 'key' => '_Rep2',
                                                                 'type' => '202'
                                                               },
                                                        '1' => {
                                                                 'key' => '_Period2',
                                                                 'type' => '28852'
                                                               }
                                                      }
                                        },
                            '139008' => {
                                          'Artificial' => 1,
                                          'Class' => '27102',
                                          'Constructor' => 1,
                                          'Header' => 'chrono.h',
                                          'InLine' => 1,
                                          'Line' => '513',
                                          'MnglName' => '_ZNSt6chrono8durationIlSt5ratioILl1ELl1000EEEC1IlS1_ILl1ELl1EEvEERKNS0_IT_T0_EE',
                                          'Param' => {
                                                       '0' => {
                                                                'name' => 'this',
                                                                'type' => '115228'
                                                              },
                                                       '1' => {
                                                                'name' => '__d',
                                                                'type' => '115198'
                                                              }
                                                     },
                                          'Reg' => {
                                                     '0' => 'rdi',
                                                     '1' => 'rsi'
                                                   },
                                          'ShortName' => 'duration<long, std::ratio<1l, 1l> >',
                                          'TParam' => {
                                                        '0' => {
                                                                 'key' => '_Rep2',
                                                                 'type' => '202'
                                                               },
                                                        '1' => {
                                                                 'key' => '_Period2',
                                                                 'type' => '28852'
                                                               }
                                                      }
                                        },
                            '139507' => {
                                          'Artificial' => 1,
                                          'Class' => '86644',
                                          'Constructor' => 1,
                                          'Header' => 'shared_ptr.h',
                                          'InLine' => 1,
                                          'Line' => '42',
                                          'MnglName' => '_ZN13opentelemetry2v15nostd10shared_ptrINS0_5trace6TracerEE18shared_ptr_wrapperC2EOSt10shared_ptrIS4_E',
                                          'Param' => {
                                                       '0' => {
                                                                'name' => 'this',
                                                                'type' => '119151'
                                                              },
                                                       '1' => {
                                                                'name' => 'ptr',
                                                                'type' => '117477'
                                                              }
                                                     },
                                          'ShortName' => 'shared_ptr_wrapper'
                                        },
                            '139508' => {
                                          'Artificial' => 1,
                                          'Class' => '86644',
                                          'Constructor' => 1,
                                          'Header' => 'shared_ptr.h',
                                          'InLine' => 1,
                                          'Line' => '42',
                                          'MnglName' => '_ZN13opentelemetry2v15nostd10shared_ptrINS0_5trace6TracerEE18shared_ptr_wrapperC1EOSt10shared_ptrIS4_E',
                                          'Param' => {
                                                       '0' => {
                                                                'name' => 'this',
                                                                'type' => '119151'
                                                              },
                                                       '1' => {
                                                                'name' => 'ptr',
                                                                'type' => '117477'
                                                              }
                                                     },
                                          'ShortName' => 'shared_ptr_wrapper'
                                        },
                            '139572' => {
                                          'Artificial' => 1,
                                          'Class' => '44669',
                                          'Constructor' => 1,
                                          'Header' => 'shared_ptr.h',
                                          'InLine' => 1,
                                          'Line' => '359',
                                          'MnglName' => '_ZNSt10shared_ptrIN13opentelemetry2v15trace10NoopTracerEEC2EOS4_',
                                          'Param' => {
                                                       '0' => {
                                                                'name' => 'this',
                                                                'type' => '117692'
                                                              },
                                                       '1' => {
                                                                'name' => '__r',
                                                                'type' => '117702'
                                                              }
                                                     },
                                          'ShortName' => 'shared_ptr'
                                        },
                            '139573' => {
                                          'Artificial' => 1,
                                          'Class' => '44669',
                                          'Constructor' => 1,
                                          'Header' => 'shared_ptr.h',
                                          'InLine' => 1,
                                          'Line' => '359',
                                          'MnglName' => '_ZNSt10shared_ptrIN13opentelemetry2v15trace10NoopTracerEEC1EOS4_',
                                          'Param' => {
                                                       '0' => {
                                                                'name' => 'this',
                                                                'type' => '117692'
                                                              },
                                                       '1' => {
                                                                'name' => '__r',
                                                                'type' => '117702'
                                                              }
                                                     },
                                          'ShortName' => 'shared_ptr'
                                        },
                            '139646' => {
                                          'Artificial' => 1,
                                          'Class' => '43689',
                                          'Constructor' => 1,
                                          'Header' => 'shared_ptr_base.h',
                                          'InLine' => 1,
                                          'Line' => '1468',
                                          'MnglName' => '_ZNSt12__shared_ptrIN13opentelemetry2v15trace10NoopTracerELN9__gnu_cxx12_Lock_policyE2EEC2IS3_vEEPT_',
                                          'Param' => {
                                                       '0' => {
                                                                'name' => 'this',
                                                                'type' => '117652'
                                                              },
                                                       '1' => {
                                                                'name' => '__p',
                                                                'type' => '117557'
                                                              }
                                                     },
                                          'ShortName' => '__shared_ptr<opentelemetry::v1::trace::NoopTracer>',
                                          'TParam' => {
                                                        '0' => {
                                                                 'key' => '_Yp',
                                                                 'type' => '64849'
                                                               }
                                                      }
                                        },
                            '139647' => {
                                          'Artificial' => 1,
                                          'Class' => '43689',
                                          'Constructor' => 1,
                                          'Header' => 'shared_ptr_base.h',
                                          'InLine' => 1,
                                          'Line' => '1468',
                                          'MnglName' => '_ZNSt12__shared_ptrIN13opentelemetry2v15trace10NoopTracerELN9__gnu_cxx12_Lock_policyE2EEC1IS3_vEEPT_',
                                          'Param' => {
                                                       '0' => {
                                                                'name' => 'this',
                                                                'type' => '117652'
                                                              },
                                                       '1' => {
                                                                'name' => '__p',
                                                                'type' => '117557'
                                                              }
                                                     },
                                          'ShortName' => '__shared_ptr<opentelemetry::v1::trace::NoopTracer>',
                                          'TParam' => {
                                                        '0' => {
                                                                 'key' => '_Yp',
                                                                 'type' => '64849'
                                                               }
                                                      }
                                        },
                            '140324' => {
                                          'Artificial' => 1,
                                          'Class' => '15957',
                                          'Constructor' => 1,
                                          'Header' => 'shared_ptr_base.h',
                                          'InLine' => 1,
                                          'Line' => '1143',
                                          'MnglName' => '_ZNSt12__weak_countILN9__gnu_cxx12_Lock_policyE2EEC2Ev',
                                          'Param' => {
                                                       '0' => {
                                                                'name' => 'this',
                                                                'type' => '117497'
                                                              }
                                                     },
                                          'ShortName' => '__weak_count'
                                        },
                            '140325' => {
                                          'Artificial' => 1,
                                          'Class' => '15957',
                                          'Constructor' => 1,
                                          'Header' => 'shared_ptr_base.h',
                                          'InLine' => 1,
                                          'Line' => '1143',
                                          'MnglName' => '_ZNSt12__weak_countILN9__gnu_cxx12_Lock_policyE2EEC1Ev',
                                          'Param' => {
                                                       '0' => {
                                                                'name' => 'this',
                                                                'type' => '117497'
                                                              }
                                                     },
                                          'ShortName' => '__weak_count'
                                        },
                            '140421' => {
                                          'Artificial' => 1,
                                          'Class' => '15146',
                                          'Constructor' => 1,
                                          'Header' => 'shared_ptr_base.h',
                                          'InLine' => 1,
                                          'Line' => '908',
                                          'MnglName' => '_ZNSt14__shared_countILN9__gnu_cxx12_Lock_policyE2EEC2Ev',
                                          'Param' => {
                                                       '0' => {
                                                                'name' => 'this',
                                                                'type' => '113701'
                                                              }
                                                     },
                                          'ShortName' => '__shared_count'
                                        },
                            '140422' => {
                                          'Artificial' => 1,
                                          'Class' => '15146',
                                          'Constructor' => 1,
                                          'Header' => 'shared_ptr_base.h',
                                          'InLine' => 1,
                                          'Line' => '908',
                                          'MnglName' => '_ZNSt14__shared_countILN9__gnu_cxx12_Lock_policyE2EEC1Ev',
                                          'Param' => {
                                                       '0' => {
                                                                'name' => 'this',
                                                                'type' => '113701'
                                                              }
                                                     },
                                          'ShortName' => '__shared_count'
                                        },
                            '140490' => {
                                          'Artificial' => 1,
                                          'Class' => '43689',
                                          'Constructor' => 1,
                                          'Header' => 'shared_ptr_base.h',
                                          'InLine' => 1,
                                          'Line' => '1547',
                                          'MnglName' => '_ZNSt12__shared_ptrIN13opentelemetry2v15trace10NoopTracerELN9__gnu_cxx12_Lock_policyE2EEC2IS3_vEERKSt10__weak_ptrIT_LS5_2EE',
                                          'Param' => {
                                                       '0' => {
                                                                'name' => 'this',
                                                                'type' => '117652'
                                                              },
                                                       '1' => {
                                                                'name' => '__r',
                                                                'type' => '117532'
                                                              }
                                                     },
                                          'ShortName' => '__shared_ptr<opentelemetry::v1::trace::NoopTracer>',
                                          'TParam' => {
                                                        '0' => {
                                                                 'key' => '_Yp',
                                                                 'type' => '64849'
                                                               }
                                                      }
                                        },
                            '140491' => {
                                          'Artificial' => 1,
                                          'Class' => '43689',
                                          'Constructor' => 1,
                                          'Header' => 'shared_ptr_base.h',
                                          'InLine' => 1,
                                          'Line' => '1547',
                                          'MnglName' => '_ZNSt12__shared_ptrIN13opentelemetry2v15trace10NoopTracerELN9__gnu_cxx12_Lock_policyE2EEC1IS3_vEERKSt10__weak_ptrIT_LS5_2EE',
                                          'Param' => {
                                                       '0' => {
                                                                'name' => 'this',
                                                                'type' => '117652'
                                                              },
                                                       '1' => {
                                                                'name' => '__r',
                                                                'type' => '117532'
                                                              }
                                                     },
                                          'ShortName' => '__shared_ptr<opentelemetry::v1::trace::NoopTracer>',
                                          'TParam' => {
                                                        '0' => {
                                                                 'key' => '_Yp',
                                                                 'type' => '64849'
                                                               }
                                                      }
                                        },
                            '141125' => {
                                          'Artificial' => 1,
                                          'Class' => '141080',
                                          'Header' => 'variant.h',
                                          'InLine' => 2,
                                          'MnglName' => '_ZZN4absl7otel_v116variant_internal18VisitIndicesSwitchILm2EE3RunINS1_36VariantStateBaseDestructorNontrivialIJN13opentelemetry2v15trace11SpanContextENS7_7context7ContextEEE9DestroyerEEENS1_22VisitIndicesResultImplIT_JmEE4typeEOSF_mENKUlvE_clEv',
                                          'Param' => {
                                                       '0' => {
                                                                'name' => '__closure',
                                                                'type' => '141162'
                                                              }
                                                     },
                                          'Return' => '1',
                                          'ShortName' => 'operator()',
                                          'Static' => 1
                                        },
                            '141360' => {
                                          'Artificial' => 1,
                                          'Class' => '110638',
                                          'Constructor' => 1,
                                          'Header' => 'variant.h',
                                          'InLine' => 1,
                                          'Line' => '1015',
                                          'MnglName' => '_ZN4absl7otel_v116variant_internal21DestructibleUnionImplIJN13opentelemetry2v15trace11SpanContextENS4_7context7ContextEEEC2IJS6_EEENS1_10EmplaceTagILm0EEEDpOT_',
                                          'Param' => {
                                                       '0' => {
                                                                'name' => 'this',
                                                                'type' => '117129'
                                                              },
                                                       '1' => {
                                                                'name' => 'p1',
                                                                'type' => '102880'
                                                              },
                                                       '2' => {
                                                                'name' => 'p2',
                                                                'type' => '117299'
                                                              }
                                                     },
                                          'ShortName' => 'DestructibleUnionImpl<opentelemetry::v1::trace::SpanContext>',
                                          'TParam' => {
                                                        '0' => {
                                                                 'key' => undef,
                                                                 'type' => '62773'
                                                               }
                                                      }
                                        },
                            '141361' => {
                                          'Artificial' => 1,
                                          'Class' => '110638',
                                          'Constructor' => 1,
                                          'Header' => 'variant.h',
                                          'InLine' => 1,
                                          'Line' => '1015',
                                          'MnglName' => '_ZN4absl7otel_v116variant_internal21DestructibleUnionImplIJN13opentelemetry2v15trace11SpanContextENS4_7context7ContextEEEC1IJS6_EEENS1_10EmplaceTagILm0EEEDpOT_',
                                          'Param' => {
                                                       '0' => {
                                                                'name' => 'this',
                                                                'type' => '117129'
                                                              },
                                                       '1' => {
                                                                'name' => 'p1',
                                                                'type' => '102880'
                                                              },
                                                       '2' => {
                                                                'name' => 'p2',
                                                                'type' => '117299'
                                                              }
                                                     },
                                          'ShortName' => 'DestructibleUnionImpl<opentelemetry::v1::trace::SpanContext>',
                                          'TParam' => {
                                                        '0' => {
                                                                 'key' => undef,
                                                                 'type' => '62773'
                                                               }
                                                      }
                                        },
                            '141472' => {
                                          'Artificial' => 1,
                                          'Class' => '32224',
                                          'Constructor' => 1,
                                          'Header' => 'shared_ptr.h',
                                          'InLine' => 1,
                                          'Line' => '359',
                                          'MnglName' => '_ZNSt10shared_ptrIN13opentelemetry2v15trace4SpanEEC2EOS4_',
                                          'Param' => {
                                                       '0' => {
                                                                'name' => 'this',
                                                                'type' => '115634'
                                                              },
                                                       '1' => {
                                                                'name' => '__r',
                                                                'type' => '115644'
                                                              }
                                                     },
                                          'ShortName' => 'shared_ptr'
                                        },
                            '141473' => {
                                          'Artificial' => 1,
                                          'Class' => '32224',
                                          'Constructor' => 1,
                                          'Header' => 'shared_ptr.h',
                                          'InLine' => 1,
                                          'Line' => '359',
                                          'MnglName' => '_ZNSt10shared_ptrIN13opentelemetry2v15trace4SpanEEC1EOS4_',
                                          'Param' => {
                                                       '0' => {
                                                                'name' => 'this',
                                                                'type' => '115634'
                                                              },
                                                       '1' => {
                                                                'name' => '__r',
                                                                'type' => '115644'
                                                              }
                                                     },
                                          'ShortName' => 'shared_ptr'
                                        },
                            '141546' => {
                                          'Artificial' => 1,
                                          'Class' => '31540',
                                          'Constructor' => 1,
                                          'Header' => 'shared_ptr_base.h',
                                          'InLine' => 1,
                                          'Line' => '1468',
                                          'MnglName' => '_ZNSt12__shared_ptrIN13opentelemetry2v15trace4SpanELN9__gnu_cxx12_Lock_policyE2EEC2IS3_vEEPT_',
                                          'Param' => {
                                                       '0' => {
                                                                'name' => 'this',
                                                                'type' => '115589'
                                                              },
                                                       '1' => {
                                                                'name' => '__p',
                                                                'type' => '115929'
                                                              }
                                                     },
                                          'ShortName' => '__shared_ptr<opentelemetry::v1::trace::Span>',
                                          'TParam' => {
                                                        '0' => {
                                                                 'key' => '_Yp',
                                                                 'type' => '63437'
                                                               }
                                                      }
                                        },
                            '141547' => {
                                          'Artificial' => 1,
                                          'Class' => '31540',
                                          'Constructor' => 1,
                                          'Header' => 'shared_ptr_base.h',
                                          'InLine' => 1,
                                          'Line' => '1468',
                                          'MnglName' => '_ZNSt12__shared_ptrIN13opentelemetry2v15trace4SpanELN9__gnu_cxx12_Lock_policyE2EEC1IS3_vEEPT_',
                                          'Param' => {
                                                       '0' => {
                                                                'name' => 'this',
                                                                'type' => '115589'
                                                              },
                                                       '1' => {
                                                                'name' => '__p',
                                                                'type' => '115929'
                                                              }
                                                     },
                                          'ShortName' => '__shared_ptr<opentelemetry::v1::trace::Span>',
                                          'TParam' => {
                                                        '0' => {
                                                                 'key' => '_Yp',
                                                                 'type' => '63437'
                                                               }
                                                      }
                                        },
                            '141692' => {
                                          'Artificial' => 1,
                                          'Class' => '21886',
                                          'Constructor' => 1,
                                          'Header' => 'shared_ptr.h',
                                          'InLine' => 1,
                                          'Line' => '359',
                                          'MnglName' => '_ZNSt10shared_ptrIN13opentelemetry2v15trace10TraceStateEEC2EOS4_',
                                          'Param' => {
                                                       '0' => {
                                                                'name' => 'this',
                                                                'type' => '114768'
                                                              },
                                                       '1' => {
                                                                'name' => '__r',
                                                                'type' => '114778'
                                                              }
                                                     },
                                          'ShortName' => 'shared_ptr'
                                        },
                            '141693' => {
                                          'Artificial' => 1,
                                          'Class' => '21886',
                                          'Constructor' => 1,
                                          'Header' => 'shared_ptr.h',
                                          'InLine' => 1,
                                          'Line' => '359',
                                          'MnglName' => '_ZNSt10shared_ptrIN13opentelemetry2v15trace10TraceStateEEC1EOS4_',
                                          'Param' => {
                                                       '0' => {
                                                                'name' => 'this',
                                                                'type' => '114768'
                                                              },
                                                       '1' => {
                                                                'name' => '__r',
                                                                'type' => '114778'
                                                              }
                                                     },
                                          'ShortName' => 'shared_ptr'
                                        },
                            '141766' => {
                                          'Artificial' => 1,
                                          'Class' => '21202',
                                          'Constructor' => 1,
                                          'Header' => 'shared_ptr_base.h',
                                          'InLine' => 1,
                                          'Line' => '1468',
                                          'MnglName' => '_ZNSt12__shared_ptrIN13opentelemetry2v15trace10TraceStateELN9__gnu_cxx12_Lock_policyE2EEC2IS3_vEEPT_',
                                          'Param' => {
                                                       '0' => {
                                                                'name' => 'this',
                                                                'type' => '114723'
                                                              },
                                                       '1' => {
                                                                'name' => '__p',
                                                                'type' => '114693'
                                                              }
                                                     },
                                          'ShortName' => '__shared_ptr<opentelemetry::v1::trace::TraceState>',
                                          'TParam' => {
                                                        '0' => {
                                                                 'key' => '_Yp',
                                                                 'type' => '62092'
                                                               }
                                                      }
                                        },
                            '141767' => {
                                          'Artificial' => 1,
                                          'Class' => '21202',
                                          'Constructor' => 1,
                                          'Header' => 'shared_ptr_base.h',
                                          'InLine' => 1,
                                          'Line' => '1468',
                                          'MnglName' => '_ZNSt12__shared_ptrIN13opentelemetry2v15trace10TraceStateELN9__gnu_cxx12_Lock_policyE2EEC1IS3_vEEPT_',
                                          'Param' => {
                                                       '0' => {
                                                                'name' => 'this',
                                                                'type' => '114723'
                                                              },
                                                       '1' => {
                                                                'name' => '__p',
                                                                'type' => '114693'
                                                              }
                                                     },
                                          'ShortName' => '__shared_ptr<opentelemetry::v1::trace::TraceState>',
                                          'TParam' => {
                                                        '0' => {
                                                                 'key' => '_Yp',
                                                                 'type' => '62092'
                                                               }
                                                      }
                                        },
                            '142125' => {
                                          'Artificial' => 1,
                                          'Class' => '89811',
                                          'Constructor' => 1,
                                          'Header' => 'shared_ptr.h',
                                          'InLine' => 1,
                                          'Line' => '42',
                                          'MnglName' => '_ZN13opentelemetry2v15nostd10shared_ptrINS0_5trace14TracerProviderEE18shared_ptr_wrapperC2EOSt10shared_ptrIS4_E',
                                          'Param' => {
                                                       '0' => {
                                                                'name' => 'this',
                                                                'type' => '119052'
                                                              },
                                                       '1' => {
                                                                'name' => 'ptr',
                                                                'type' => '118532'
                                                              }
                                                     },
                                          'ShortName' => 'shared_ptr_wrapper'
                                        },
                            '142126' => {
                                          'Artificial' => 1,
                                          'Class' => '89811',
                                          'Constructor' => 1,
                                          'Header' => 'shared_ptr.h',
                                          'InLine' => 1,
                                          'Line' => '42',
                                          'MnglName' => '_ZN13opentelemetry2v15nostd10shared_ptrINS0_5trace14TracerProviderEE18shared_ptr_wrapperC1EOSt10shared_ptrIS4_E',
                                          'Param' => {
                                                       '0' => {
                                                                'name' => 'this',
                                                                'type' => '119052'
                                                              },
                                                       '1' => {
                                                                'name' => 'ptr',
                                                                'type' => '118532'
                                                              }
                                                     },
                                          'ShortName' => 'shared_ptr_wrapper'
                                        },
                            '142198' => {
                                          'Artificial' => 1,
                                          'Class' => '55012',
                                          'Constructor' => 1,
                                          'Header' => 'shared_ptr.h',
                                          'InLine' => 1,
                                          'Line' => '214',
                                          'MnglName' => '_ZNSt10shared_ptrIN13opentelemetry2v15trace14TracerProviderEEC2IS3_vEEPT_',
                                          'Param' => {
                                                       '0' => {
                                                                'name' => 'this',
                                                                'type' => '118522'
                                                              },
                                                       '1' => {
                                                                'name' => '__p',
                                                                'type' => '118667'
                                                              }
                                                     },
                                          'ShortName' => 'shared_ptr<opentelemetry::v1::trace::TracerProvider>',
                                          'TParam' => {
                                                        '0' => {
                                                                 'key' => '_Yp',
                                                                 'type' => '65215'
                                                               }
                                                      }
                                        },
                            '142199' => {
                                          'Artificial' => 1,
                                          'Class' => '55012',
                                          'Constructor' => 1,
                                          'Header' => 'shared_ptr.h',
                                          'InLine' => 1,
                                          'Line' => '214',
                                          'MnglName' => '_ZNSt10shared_ptrIN13opentelemetry2v15trace14TracerProviderEEC1IS3_vEEPT_',
                                          'Param' => {
                                                       '0' => {
                                                                'name' => 'this',
                                                                'type' => '118522'
                                                              },
                                                       '1' => {
                                                                'name' => '__p',
                                                                'type' => '118667'
                                                              }
                                                     },
                                          'ShortName' => 'shared_ptr<opentelemetry::v1::trace::TracerProvider>',
                                          'TParam' => {
                                                        '0' => {
                                                                 'key' => '_Yp',
                                                                 'type' => '65215'
                                                               }
                                                      }
                                        },
                            '142268' => {
                                          'Artificial' => 1,
                                          'Class' => '89811',
                                          'Destructor' => 1,
                                          'Header' => 'shared_ptr.h',
                                          'InLine' => 1,
                                          'Line' => '44',
                                          'MnglName' => '_ZN13opentelemetry2v15nostd10shared_ptrINS0_5trace14TracerProviderEE18shared_ptr_wrapperD0Ev',
                                          'Param' => {
                                                       '0' => {
                                                                'name' => 'this',
                                                                'type' => '119052'
                                                              }
                                                     },
                                          'ShortName' => 'shared_ptr_wrapper',
                                          'Virt' => 1
                                        },
                            '142269' => {
                                          'Artificial' => 1,
                                          'Class' => '89811',
                                          'Destructor' => 1,
                                          'Header' => 'shared_ptr.h',
                                          'InLine' => 1,
                                          'Line' => '44',
                                          'MnglName' => '_ZN13opentelemetry2v15nostd10shared_ptrINS0_5trace14TracerProviderEE18shared_ptr_wrapperD1Ev',
                                          'Param' => {
                                                       '0' => {
                                                                'name' => 'this',
                                                                'type' => '119052'
                                                              }
                                                     },
                                          'ShortName' => 'shared_ptr_wrapper',
                                          'Virt' => 1
                                        },
                            '142548' => {
                                          'Artificial' => 1,
                                          'Class' => '89811',
                                          'Destructor' => 1,
                                          'Header' => 'shared_ptr.h',
                                          'InLine' => 1,
                                          'Line' => '44',
                                          'MnglName' => '_ZN13opentelemetry2v15nostd10shared_ptrINS0_5trace14TracerProviderEE18shared_ptr_wrapperD2Ev',
                                          'Param' => {
                                                       '0' => {
                                                                'name' => 'this',
                                                                'type' => '119052'
                                                              }
                                                     },
                                          'ShortName' => 'shared_ptr_wrapper',
                                          'Virt' => 1
                                        },
                            '142862' => {
                                          'Artificial' => 1,
                                          'Class' => '89811',
                                          'Constructor' => 1,
                                          'Header' => 'shared_ptr.h',
                                          'InLine' => 1,
                                          'Line' => '37',
                                          'MnglName' => '_ZN13opentelemetry2v15nostd10shared_ptrINS0_5trace14TracerProviderEE18shared_ptr_wrapperC2ERKS6_',
                                          'Param' => {
                                                       '0' => {
                                                                'name' => 'this',
                                                                'type' => '119052'
                                                              },
                                                       '1' => {
                                                                'name' => 'p1',
                                                                'type' => '118602'
                                                              }
                                                     },
                                          'Reg' => {
                                                     '0' => 'rdi',
                                                     '1' => 'rsi'
                                                   },
                                          'ShortName' => 'shared_ptr_wrapper'
                                        },
                            '142863' => {
                                          'Artificial' => 1,
                                          'Class' => '89811',
                                          'Constructor' => 1,
                                          'Header' => 'shared_ptr.h',
                                          'InLine' => 1,
                                          'Line' => '37',
                                          'MnglName' => '_ZN13opentelemetry2v15nostd10shared_ptrINS0_5trace14TracerProviderEE18shared_ptr_wrapperC1ERKS6_',
                                          'Param' => {
                                                       '0' => {
                                                                'name' => 'this',
                                                                'type' => '119052'
                                                              },
                                                       '1' => {
                                                                'name' => 'p1',
                                                                'type' => '118602'
                                                              }
                                                     },
                                          'Reg' => {
                                                     '0' => 'rdi',
                                                     '1' => 'rsi'
                                                   },
                                          'ShortName' => 'shared_ptr_wrapper'
                                        },
                            '143103' => {
                                          'Artificial' => 1,
                                          'Class' => '55012',
                                          'Constructor' => 1,
                                          'Header' => 'shared_ptr.h',
                                          'InLine' => 1,
                                          'Line' => '204',
                                          'MnglName' => '_ZNSt10shared_ptrIN13opentelemetry2v15trace14TracerProviderEEC2ERKS4_',
                                          'Param' => {
                                                       '0' => {
                                                                'name' => 'this',
                                                                'type' => '118522'
                                                              },
                                                       '1' => {
                                                                'name' => 'p1',
                                                                'type' => '118527'
                                                              }
                                                     },
                                          'ShortName' => 'shared_ptr'
                                        },
                            '143104' => {
                                          'Artificial' => 1,
                                          'Class' => '55012',
                                          'Constructor' => 1,
                                          'Header' => 'shared_ptr.h',
                                          'InLine' => 1,
                                          'Line' => '204',
                                          'MnglName' => '_ZNSt10shared_ptrIN13opentelemetry2v15trace14TracerProviderEEC1ERKS4_',
                                          'Param' => {
                                                       '0' => {
                                                                'name' => 'this',
                                                                'type' => '118522'
                                                              },
                                                       '1' => {
                                                                'name' => 'p1',
                                                                'type' => '118527'
                                                              }
                                                     },
                                          'ShortName' => 'shared_ptr'
                                        },
                            '143160' => {
                                          'Artificial' => 1,
                                          'Class' => '54328',
                                          'Constructor' => 1,
                                          'Header' => 'shared_ptr_base.h',
                                          'InLine' => 1,
                                          'Line' => '1522',
                                          'MnglName' => '_ZNSt12__shared_ptrIN13opentelemetry2v15trace14TracerProviderELN9__gnu_cxx12_Lock_policyE2EEC2ERKS6_',
                                          'Param' => {
                                                       '0' => {
                                                                'name' => 'this',
                                                                'type' => '118477'
                                                              },
                                                       '1' => {
                                                                'name' => 'p1',
                                                                'type' => '118482'
                                                              }
                                                     },
                                          'ShortName' => '__shared_ptr'
                                        },
                            '143161' => {
                                          'Artificial' => 1,
                                          'Class' => '54328',
                                          'Constructor' => 1,
                                          'Header' => 'shared_ptr_base.h',
                                          'InLine' => 1,
                                          'Line' => '1522',
                                          'MnglName' => '_ZNSt12__shared_ptrIN13opentelemetry2v15trace14TracerProviderELN9__gnu_cxx12_Lock_policyE2EEC1ERKS6_',
                                          'Param' => {
                                                       '0' => {
                                                                'name' => 'this',
                                                                'type' => '118477'
                                                              },
                                                       '1' => {
                                                                'name' => 'p1',
                                                                'type' => '118482'
                                                              }
                                                     },
                                          'ShortName' => '__shared_ptr'
                                        },
                            '143812' => {
                                          'Artificial' => 1,
                                          'Class' => '86644',
                                          'Constructor' => 1,
                                          'Header' => 'shared_ptr.h',
                                          'InLine' => 1,
                                          'Line' => '37',
                                          'MnglName' => '_ZN13opentelemetry2v15nostd10shared_ptrINS0_5trace6TracerEE18shared_ptr_wrapperC2ERKS6_',
                                          'Param' => {
                                                       '0' => {
                                                                'name' => 'this',
                                                                'type' => '119151'
                                                              },
                                                       '1' => {
                                                                'name' => 'p1',
                                                                'type' => '117772'
                                                              }
                                                     },
                                          'Reg' => {
                                                     '0' => 'rdi',
                                                     '1' => 'rsi'
                                                   },
                                          'ShortName' => 'shared_ptr_wrapper'
                                        },
                            '143813' => {
                                          'Artificial' => 1,
                                          'Class' => '86644',
                                          'Constructor' => 1,
                                          'Header' => 'shared_ptr.h',
                                          'InLine' => 1,
                                          'Line' => '37',
                                          'MnglName' => '_ZN13opentelemetry2v15nostd10shared_ptrINS0_5trace6TracerEE18shared_ptr_wrapperC1ERKS6_',
                                          'Param' => {
                                                       '0' => {
                                                                'name' => 'this',
                                                                'type' => '119151'
                                                              },
                                                       '1' => {
                                                                'name' => 'p1',
                                                                'type' => '117772'
                                                              }
                                                     },
                                          'Reg' => {
                                                     '0' => 'rdi',
                                                     '1' => 'rsi'
                                                   },
                                          'ShortName' => 'shared_ptr_wrapper'
                                        },
                            '144081' => {
                                          'Artificial' => 1,
                                          'Class' => '86644',
                                          'Destructor' => 1,
                                          'Header' => 'shared_ptr.h',
                                          'InLine' => 1,
                                          'Line' => '44',
                                          'MnglName' => '_ZN13opentelemetry2v15nostd10shared_ptrINS0_5trace6TracerEE18shared_ptr_wrapperD0Ev',
                                          'Param' => {
                                                       '0' => {
                                                                'name' => 'this',
                                                                'type' => '119151'
                                                              }
                                                     },
                                          'ShortName' => 'shared_ptr_wrapper',
                                          'Virt' => 1
                                        },
                            '144082' => {
                                          'Artificial' => 1,
                                          'Class' => '86644',
                                          'Destructor' => 1,
                                          'Header' => 'shared_ptr.h',
                                          'InLine' => 1,
                                          'Line' => '44',
                                          'MnglName' => '_ZN13opentelemetry2v15nostd10shared_ptrINS0_5trace6TracerEE18shared_ptr_wrapperD1Ev',
                                          'Param' => {
                                                       '0' => {
                                                                'name' => 'this',
                                                                'type' => '119151'
                                                              }
                                                     },
                                          'ShortName' => 'shared_ptr_wrapper',
                                          'Virt' => 1
                                        },
                            '144361' => {
                                          'Artificial' => 1,
                                          'Class' => '86644',
                                          'Destructor' => 1,
                                          'Header' => 'shared_ptr.h',
                                          'InLine' => 1,
                                          'Line' => '44',
                                          'MnglName' => '_ZN13opentelemetry2v15nostd10shared_ptrINS0_5trace6TracerEE18shared_ptr_wrapperD2Ev',
                                          'Param' => {
                                                       '0' => {
                                                                'name' => 'this',
                                                                'type' => '119151'
                                                              }
                                                     },
                                          'ShortName' => 'shared_ptr_wrapper',
                                          'Virt' => 1
                                        },
                            '144627' => {
                                          'Artificial' => 1,
                                          'Class' => '88229',
                                          'Destructor' => 1,
                                          'Header' => 'shared_ptr.h',
                                          'InLine' => 1,
                                          'Line' => '44',
                                          'MnglName' => '_ZN13opentelemetry2v15nostd10shared_ptrINS0_5trace10NoopTracerEE18shared_ptr_wrapperD0Ev',
                                          'Param' => {
                                                       '0' => {
                                                                'name' => 'this',
                                                                'type' => '119106'
                                                              }
                                                     },
                                          'ShortName' => 'shared_ptr_wrapper',
                                          'Virt' => 1
                                        },
                            '144628' => {
                                          'Artificial' => 1,
                                          'Class' => '88229',
                                          'Destructor' => 1,
                                          'Header' => 'shared_ptr.h',
                                          'InLine' => 1,
                                          'Line' => '44',
                                          'MnglName' => '_ZN13opentelemetry2v15nostd10shared_ptrINS0_5trace10NoopTracerEE18shared_ptr_wrapperD1Ev',
                                          'Param' => {
                                                       '0' => {
                                                                'name' => 'this',
                                                                'type' => '119106'
                                                              }
                                                     },
                                          'ShortName' => 'shared_ptr_wrapper',
                                          'Virt' => 1
                                        },
                            '144907' => {
                                          'Artificial' => 1,
                                          'Class' => '88229',
                                          'Destructor' => 1,
                                          'Header' => 'shared_ptr.h',
                                          'InLine' => 1,
                                          'Line' => '44',
                                          'MnglName' => '_ZN13opentelemetry2v15nostd10shared_ptrINS0_5trace10NoopTracerEE18shared_ptr_wrapperD2Ev',
                                          'Param' => {
                                                       '0' => {
                                                                'name' => 'this',
                                                                'type' => '119106'
                                                              }
                                                     },
                                          'ShortName' => 'shared_ptr_wrapper',
                                          'Virt' => 1
                                        },
                            '145133' => {
                                          'Artificial' => 1,
                                          'Class' => '88229',
                                          'Constructor' => 1,
                                          'Header' => 'shared_ptr.h',
                                          'InLine' => 1,
                                          'Line' => '42',
                                          'MnglName' => '_ZN13opentelemetry2v15nostd10shared_ptrINS0_5trace10NoopTracerEE18shared_ptr_wrapperC2EOSt10shared_ptrIS4_E',
                                          'Param' => {
                                                       '0' => {
                                                                'name' => 'this',
                                                                'type' => '119106'
                                                              },
                                                       '1' => {
                                                                'name' => 'ptr',
                                                                'type' => '117702'
                                                              }
                                                     },
                                          'ShortName' => 'shared_ptr_wrapper'
                                        },
                            '145134' => {
                                          'Artificial' => 1,
                                          'Class' => '88229',
                                          'Constructor' => 1,
                                          'Header' => 'shared_ptr.h',
                                          'InLine' => 1,
                                          'Line' => '42',
                                          'MnglName' => '_ZN13opentelemetry2v15nostd10shared_ptrINS0_5trace10NoopTracerEE18shared_ptr_wrapperC1EOSt10shared_ptrIS4_E',
                                          'Param' => {
                                                       '0' => {
                                                                'name' => 'this',
                                                                'type' => '119106'
                                                              },
                                                       '1' => {
                                                                'name' => 'ptr',
                                                                'type' => '117702'
                                                              }
                                                     },
                                          'ShortName' => 'shared_ptr_wrapper'
                                        },
                            '145206' => {
                                          'Artificial' => 1,
                                          'Class' => '44669',
                                          'Constructor' => 1,
                                          'Header' => 'shared_ptr.h',
                                          'InLine' => 1,
                                          'Line' => '214',
                                          'MnglName' => '_ZNSt10shared_ptrIN13opentelemetry2v15trace10NoopTracerEEC2IS3_vEEPT_',
                                          'Param' => {
                                                       '0' => {
                                                                'name' => 'this',
                                                                'type' => '117692'
                                                              },
                                                       '1' => {
                                                                'name' => '__p',
                                                                'type' => '117557'
                                                              }
                                                     },
                                          'ShortName' => 'shared_ptr<opentelemetry::v1::trace::NoopTracer>',
                                          'TParam' => {
                                                        '0' => {
                                                                 'key' => '_Yp',
                                                                 'type' => '64849'
                                                               }
                                                      }
                                        },
                            '145207' => {
                                          'Artificial' => 1,
                                          'Class' => '44669',
                                          'Constructor' => 1,
                                          'Header' => 'shared_ptr.h',
                                          'InLine' => 1,
                                          'Line' => '214',
                                          'MnglName' => '_ZNSt10shared_ptrIN13opentelemetry2v15trace10NoopTracerEEC1IS3_vEEPT_',
                                          'Param' => {
                                                       '0' => {
                                                                'name' => 'this',
                                                                'type' => '117692'
                                                              },
                                                       '1' => {
                                                                'name' => '__p',
                                                                'type' => '117557'
                                                              }
                                                     },
                                          'ShortName' => 'shared_ptr<opentelemetry::v1::trace::NoopTracer>',
                                          'TParam' => {
                                                        '0' => {
                                                                 'key' => '_Yp',
                                                                 'type' => '64849'
                                                               }
                                                      }
                                        },
                            '145276' => {
                                          'Artificial' => 1,
                                          'Class' => '15957',
                                          'Destructor' => 1,
                                          'Header' => 'shared_ptr_base.h',
                                          'InLine' => 1,
                                          'Line' => '1164',
                                          'MnglName' => '_ZNSt12__weak_countILN9__gnu_cxx12_Lock_policyE2EED2Ev',
                                          'Param' => {
                                                       '0' => {
                                                                'name' => 'this',
                                                                'type' => '117497'
                                                              }
                                                     },
                                          'ShortName' => '__weak_count'
                                        },
                            '145277' => {
                                          'Artificial' => 1,
                                          'Class' => '15957',
                                          'Destructor' => 1,
                                          'Header' => 'shared_ptr_base.h',
                                          'InLine' => 1,
                                          'Line' => '1164',
                                          'MnglName' => '_ZNSt12__weak_countILN9__gnu_cxx12_Lock_policyE2EED0Ev',
                                          'Param' => {
                                                       '0' => {
                                                                'name' => 'this',
                                                                'type' => '117497'
                                                              }
                                                     },
                                          'ShortName' => '__weak_count'
                                        },
                            '145323' => {
                                          'Artificial' => 1,
                                          'Class' => '43213',
                                          'Constructor' => 1,
                                          'Header' => 'shared_ptr_base.h',
                                          'InLine' => 1,
                                          'Line' => '1987',
                                          'MnglName' => '_ZNSt10__weak_ptrIN13opentelemetry2v15trace10NoopTracerELN9__gnu_cxx12_Lock_policyE2EEC2Ev',
                                          'Param' => {
                                                       '0' => {
                                                                'name' => 'this',
                                                                'type' => '117527'
                                                              }
                                                     },
                                          'ShortName' => '__weak_ptr'
                                        },
                            '145324' => {
                                          'Artificial' => 1,
                                          'Class' => '43213',
                                          'Constructor' => 1,
                                          'Header' => 'shared_ptr_base.h',
                                          'InLine' => 1,
                                          'Line' => '1987',
                                          'MnglName' => '_ZNSt10__weak_ptrIN13opentelemetry2v15trace10NoopTracerELN9__gnu_cxx12_Lock_policyE2EEC1Ev',
                                          'Param' => {
                                                       '0' => {
                                                                'name' => 'this',
                                                                'type' => '117527'
                                                              }
                                                     },
                                          'ShortName' => '__weak_ptr'
                                        },
                            '145392' => {
                                          'Artificial' => 1,
                                          'Class' => '42193',
                                          'Constructor' => 1,
                                          'Header' => 'shared_ptr_base.h',
                                          'InLine' => 1,
                                          'Line' => '1539',
                                          'MnglName' => '_ZNSt12__shared_ptrIN13opentelemetry2v15trace6TracerELN9__gnu_cxx12_Lock_policyE2EEC2INS2_10NoopTracerEvEEOS_IT_LS5_2EE',
                                          'Param' => {
                                                       '0' => {
                                                                'name' => 'this',
                                                                'type' => '117422'
                                                              },
                                                       '1' => {
                                                                'name' => '__r',
                                                                'type' => '117667'
                                                              }
                                                     },
                                          'ShortName' => '__shared_ptr<opentelemetry::v1::trace::NoopTracer>',
                                          'TParam' => {
                                                        '0' => {
                                                                 'key' => '_Yp',
                                                                 'type' => '64849'
                                                               }
                                                      }
                                        },
                            '145393' => {
                                          'Artificial' => 1,
                                          'Class' => '42193',
                                          'Constructor' => 1,
                                          'Header' => 'shared_ptr_base.h',
                                          'InLine' => 1,
                                          'Line' => '1539',
                                          'MnglName' => '_ZNSt12__shared_ptrIN13opentelemetry2v15trace6TracerELN9__gnu_cxx12_Lock_policyE2EEC1INS2_10NoopTracerEvEEOS_IT_LS5_2EE',
                                          'Param' => {
                                                       '0' => {
                                                                'name' => 'this',
                                                                'type' => '117422'
                                                              },
                                                       '1' => {
                                                                'name' => '__r',
                                                                'type' => '117667'
                                                              }
                                                     },
                                          'ShortName' => '__shared_ptr<opentelemetry::v1::trace::NoopTracer>',
                                          'TParam' => {
                                                        '0' => {
                                                                 'key' => '_Yp',
                                                                 'type' => '64849'
                                                               }
                                                      }
                                        },
                            '145475' => {
                                          'Artificial' => 1,
                                          'Class' => '44669',
                                          'Constructor' => 1,
                                          'Header' => 'shared_ptr.h',
                                          'InLine' => 1,
                                          'Line' => '380',
                                          'MnglName' => '_ZNSt10shared_ptrIN13opentelemetry2v15trace10NoopTracerEEC2IS3_vEERKSt8weak_ptrIT_E',
                                          'Param' => {
                                                       '0' => {
                                                                'name' => 'this',
                                                                'type' => '117692'
                                                              },
                                                       '1' => {
                                                                'name' => '__r',
                                                                'type' => '117582'
                                                              }
                                                     },
                                          'ShortName' => 'shared_ptr<opentelemetry::v1::trace::NoopTracer>',
                                          'TParam' => {
                                                        '0' => {
                                                                 'key' => '_Yp',
                                                                 'type' => '64849'
                                                               }
                                                      }
                                        },
                            '145476' => {
                                          'Artificial' => 1,
                                          'Class' => '44669',
                                          'Constructor' => 1,
                                          'Header' => 'shared_ptr.h',
                                          'InLine' => 1,
                                          'Line' => '380',
                                          'MnglName' => '_ZNSt10shared_ptrIN13opentelemetry2v15trace10NoopTracerEEC1IS3_vEERKSt8weak_ptrIT_E',
                                          'Param' => {
                                                       '0' => {
                                                                'name' => 'this',
                                                                'type' => '117692'
                                                              },
                                                       '1' => {
                                                                'name' => '__r',
                                                                'type' => '117582'
                                                              }
                                                     },
                                          'ShortName' => 'shared_ptr<opentelemetry::v1::trace::NoopTracer>',
                                          'TParam' => {
                                                        '0' => {
                                                                 'key' => '_Yp',
                                                                 'type' => '64849'
                                                               }
                                                      }
                                        },
                            '145845' => {
                                          'Artificial' => 1,
                                          'Class' => '65382',
                                          'Constructor' => 1,
                                          'Header' => 'span_context_kv_iterable_view.h',
                                          'InLine' => 1,
                                          'Line' => '58',
                                          'MnglName' => '_ZN13opentelemetry2v15trace31SpanContextKeyValueIterableViewINS0_5nostd4spanIKSt4pairINS1_11SpanContextESt16initializer_listIS5_INS3_11string_viewEN4absl7otel_v17variantIJbiljdPKcS8_NS4_IKbLm18446744073709551615EEENS4_IKiLm18446744073709551615EEENS4_IKlLm18446744073709551615EEENS4_IKjLm18446744073709551615EEENS4_IKdLm18446744073709551615EEENS4_IKS8_Lm18446744073709551615EEEmNS4_IKmLm18446744073709551615EEENS4_IKhLm18446744073709551615EEEEEEEEELm18446744073709551615EEEEC2ERKSZ_',
                                          'Param' => {
                                                       '0' => {
                                                                'name' => 'this',
                                                                'type' => '118992'
                                                              },
                                                       '1' => {
                                                                'name' => 'links',
                                                                'type' => '117339'
                                                              }
                                                     },
                                          'ShortName' => 'SpanContextKeyValueIterableView'
                                        },
                            '145846' => {
                                          'Artificial' => 1,
                                          'Class' => '65382',
                                          'Constructor' => 1,
                                          'Header' => 'span_context_kv_iterable_view.h',
                                          'InLine' => 1,
                                          'Line' => '58',
                                          'MnglName' => '_ZN13opentelemetry2v15trace31SpanContextKeyValueIterableViewINS0_5nostd4spanIKSt4pairINS1_11SpanContextESt16initializer_listIS5_INS3_11string_viewEN4absl7otel_v17variantIJbiljdPKcS8_NS4_IKbLm18446744073709551615EEENS4_IKiLm18446744073709551615EEENS4_IKlLm18446744073709551615EEENS4_IKjLm18446744073709551615EEENS4_IKdLm18446744073709551615EEENS4_IKS8_Lm18446744073709551615EEEmNS4_IKmLm18446744073709551615EEENS4_IKhLm18446744073709551615EEEEEEEEELm18446744073709551615EEEEC1ERKSZ_',
                                          'Param' => {
                                                       '0' => {
                                                                'name' => 'this',
                                                                'type' => '118992'
                                                              },
                                                       '1' => {
                                                                'name' => 'links',
                                                                'type' => '117339'
                                                              }
                                                     },
                                          'ShortName' => 'SpanContextKeyValueIterableView'
                                        },
                            '145973' => {
                                          'Artificial' => 1,
                                          'Class' => '110638',
                                          'Destructor' => 1,
                                          'Header' => 'variant.h',
                                          'InLine' => 1,
                                          'Line' => '1022',
                                          'MnglName' => '_ZN4absl7otel_v116variant_internal21DestructibleUnionImplIJN13opentelemetry2v15trace11SpanContextENS4_7context7ContextEEED2Ev',
                                          'Param' => {
                                                       '0' => {
                                                                'name' => 'this',
                                                                'type' => '117129'
                                                              }
                                                     },
                                          'ShortName' => 'DestructibleUnionImpl'
                                        },
                            '145974' => {
                                          'Artificial' => 1,
                                          'Class' => '110638',
                                          'Destructor' => 1,
                                          'Header' => 'variant.h',
                                          'InLine' => 1,
                                          'Line' => '1022',
                                          'MnglName' => '_ZN4absl7otel_v116variant_internal21DestructibleUnionImplIJN13opentelemetry2v15trace11SpanContextENS4_7context7ContextEEED0Ev',
                                          'Param' => {
                                                       '0' => {
                                                                'name' => 'this',
                                                                'type' => '117129'
                                                              }
                                                     },
                                          'ShortName' => 'DestructibleUnionImpl'
                                        },
                            '146064' => {
                                          'Artificial' => 1,
                                          'Class' => '110940',
                                          'Constructor' => 1,
                                          'Header' => 'variant.h',
                                          'InLine' => 1,
                                          'Line' => '1050',
                                          'MnglName' => '_ZN4absl7otel_v116variant_internal16VariantStateBaseIN13opentelemetry2v15trace11SpanContextEJNS4_7context7ContextEEEC2ILm0EJS6_EEENS1_10EmplaceTagIXT_EEEDpOT0_',
                                          'Param' => {
                                                       '0' => {
                                                                'name' => 'this',
                                                                'type' => '117139'
                                                              },
                                                       '1' => {
                                                                'name' => 'tag',
                                                                'type' => '102880'
                                                              },
                                                       '2' => {
                                                                'name' => 'p2',
                                                                'type' => '117299'
                                                              }
                                                     },
                                          'Protected' => 1,
                                          'ShortName' => 'VariantStateBase<0ul, opentelemetry::v1::trace::SpanContext>',
                                          'TParam' => {
                                                        '0' => {
                                                                 'key' => 'I',
                                                                 'type' => '74',
                                                                 'val' => '0'
                                                               },
                                                        '1' => {
                                                                 'key' => undef,
                                                                 'type' => '62773'
                                                               }
                                                      }
                                        },
                            '146065' => {
                                          'Artificial' => 1,
                                          'Class' => '110940',
                                          'Constructor' => 1,
                                          'Header' => 'variant.h',
                                          'InLine' => 1,
                                          'Line' => '1050',
                                          'MnglName' => '_ZN4absl7otel_v116variant_internal16VariantStateBaseIN13opentelemetry2v15trace11SpanContextEJNS4_7context7ContextEEEC1ILm0EJS6_EEENS1_10EmplaceTagIXT_EEEDpOT0_',
                                          'Param' => {
                                                       '0' => {
                                                                'name' => 'this',
                                                                'type' => '117139'
                                                              },
                                                       '1' => {
                                                                'name' => 'tag',
                                                                'type' => '102880'
                                                              },
                                                       '2' => {
                                                                'name' => 'p2',
                                                                'type' => '117299'
                                                              }
                                                     },
                                          'Protected' => 1,
                                          'ShortName' => 'VariantStateBase<0ul, opentelemetry::v1::trace::SpanContext>',
                                          'TParam' => {
                                                        '0' => {
                                                                 'key' => 'I',
                                                                 'type' => '74',
                                                                 'val' => '0'
                                                               },
                                                        '1' => {
                                                                 'key' => undef,
                                                                 'type' => '62773'
                                                               }
                                                      }
                                        },
                            '146281' => {
                                          'Artificial' => 1,
                                          'Class' => '82323',
                                          'Constructor' => 1,
                                          'Header' => 'shared_ptr.h',
                                          'InLine' => 1,
                                          'Line' => '42',
                                          'MnglName' => '_ZN13opentelemetry2v15nostd10shared_ptrINS0_5trace4SpanEE18shared_ptr_wrapperC2EOSt10shared_ptrIS4_E',
                                          'Param' => {
                                                       '0' => {
                                                                'name' => 'this',
                                                                'type' => '119276'
                                                              },
                                                       '1' => {
                                                                'name' => 'ptr',
                                                                'type' => '115644'
                                                              }
                                                     },
                                          'ShortName' => 'shared_ptr_wrapper'
                                        },
                            '146282' => {
                                          'Artificial' => 1,
                                          'Class' => '82323',
                                          'Constructor' => 1,
                                          'Header' => 'shared_ptr.h',
                                          'InLine' => 1,
                                          'Line' => '42',
                                          'MnglName' => '_ZN13opentelemetry2v15nostd10shared_ptrINS0_5trace4SpanEE18shared_ptr_wrapperC1EOSt10shared_ptrIS4_E',
                                          'Param' => {
                                                       '0' => {
                                                                'name' => 'this',
                                                                'type' => '119276'
                                                              },
                                                       '1' => {
                                                                'name' => 'ptr',
                                                                'type' => '115644'
                                                              }
                                                     },
                                          'ShortName' => 'shared_ptr_wrapper'
                                        },
                            '146354' => {
                                          'Artificial' => 1,
                                          'Class' => '32224',
                                          'Constructor' => 1,
                                          'Header' => 'shared_ptr.h',
                                          'InLine' => 1,
                                          'Line' => '214',
                                          'MnglName' => '_ZNSt10shared_ptrIN13opentelemetry2v15trace4SpanEEC2IS3_vEEPT_',
                                          'Param' => {
                                                       '0' => {
                                                                'name' => 'this',
                                                                'type' => '115634'
                                                              },
                                                       '1' => {
                                                                'name' => '__p',
                                                                'type' => '115929'
                                                              }
                                                     },
                                          'ShortName' => 'shared_ptr<opentelemetry::v1::trace::Span>',
                                          'TParam' => {
                                                        '0' => {
                                                                 'key' => '_Yp',
                                                                 'type' => '63437'
                                                               }
                                                      }
                                        },
                            '146355' => {
                                          'Artificial' => 1,
                                          'Class' => '32224',
                                          'Constructor' => 1,
                                          'Header' => 'shared_ptr.h',
                                          'InLine' => 1,
                                          'Line' => '214',
                                          'MnglName' => '_ZNSt10shared_ptrIN13opentelemetry2v15trace4SpanEEC1IS3_vEEPT_',
                                          'Param' => {
                                                       '0' => {
                                                                'name' => 'this',
                                                                'type' => '115634'
                                                              },
                                                       '1' => {
                                                                'name' => '__p',
                                                                'type' => '115929'
                                                              }
                                                     },
                                          'ShortName' => 'shared_ptr<opentelemetry::v1::trace::Span>',
                                          'TParam' => {
                                                        '0' => {
                                                                 'key' => '_Yp',
                                                                 'type' => '63437'
                                                               }
                                                      }
                                        },
                            '146424' => {
                                          'Artificial' => 1,
                                          'Class' => '82323',
                                          'Destructor' => 1,
                                          'Header' => 'shared_ptr.h',
                                          'InLine' => 1,
                                          'Line' => '44',
                                          'MnglName' => '_ZN13opentelemetry2v15nostd10shared_ptrINS0_5trace4SpanEE18shared_ptr_wrapperD0Ev',
                                          'Param' => {
                                                       '0' => {
                                                                'name' => 'this',
                                                                'type' => '119276'
                                                              }
                                                     },
                                          'ShortName' => 'shared_ptr_wrapper',
                                          'Virt' => 1
                                        },
                            '146425' => {
                                          'Artificial' => 1,
                                          'Class' => '82323',
                                          'Destructor' => 1,
                                          'Header' => 'shared_ptr.h',
                                          'InLine' => 1,
                                          'Line' => '44',
                                          'MnglName' => '_ZN13opentelemetry2v15nostd10shared_ptrINS0_5trace4SpanEE18shared_ptr_wrapperD1Ev',
                                          'Param' => {
                                                       '0' => {
                                                                'name' => 'this',
                                                                'type' => '119276'
                                                              }
                                                     },
                                          'ShortName' => 'shared_ptr_wrapper',
                                          'Virt' => 1
                                        },
                            '146704' => {
                                          'Artificial' => 1,
                                          'Class' => '82323',
                                          'Destructor' => 1,
                                          'Header' => 'shared_ptr.h',
                                          'InLine' => 1,
                                          'Line' => '44',
                                          'MnglName' => '_ZN13opentelemetry2v15nostd10shared_ptrINS0_5trace4SpanEE18shared_ptr_wrapperD2Ev',
                                          'Param' => {
                                                       '0' => {
                                                                'name' => 'this',
                                                                'type' => '119276'
                                                              }
                                                     },
                                          'ShortName' => 'shared_ptr_wrapper',
                                          'Virt' => 1
                                        },
                            '147018' => {
                                          'Artificial' => 1,
                                          'Class' => '82323',
                                          'Constructor' => 1,
                                          'Header' => 'shared_ptr.h',
                                          'InLine' => 1,
                                          'Line' => '37',
                                          'MnglName' => '_ZN13opentelemetry2v15nostd10shared_ptrINS0_5trace4SpanEE18shared_ptr_wrapperC2ERKS6_',
                                          'Param' => {
                                                       '0' => {
                                                                'name' => 'this',
                                                                'type' => '119276'
                                                              },
                                                       '1' => {
                                                                'name' => 'p1',
                                                                'type' => '115719'
                                                              }
                                                     },
                                          'Reg' => {
                                                     '0' => 'rdi',
                                                     '1' => 'rsi'
                                                   },
                                          'ShortName' => 'shared_ptr_wrapper'
                                        },
                            '147019' => {
                                          'Artificial' => 1,
                                          'Class' => '82323',
                                          'Constructor' => 1,
                                          'Header' => 'shared_ptr.h',
                                          'InLine' => 1,
                                          'Line' => '37',
                                          'MnglName' => '_ZN13opentelemetry2v15nostd10shared_ptrINS0_5trace4SpanEE18shared_ptr_wrapperC1ERKS6_',
                                          'Param' => {
                                                       '0' => {
                                                                'name' => 'this',
                                                                'type' => '119276'
                                                              },
                                                       '1' => {
                                                                'name' => 'p1',
                                                                'type' => '115719'
                                                              }
                                                     },
                                          'Reg' => {
                                                     '0' => 'rdi',
                                                     '1' => 'rsi'
                                                   },
                                          'ShortName' => 'shared_ptr_wrapper'
                                        },
                            '147259' => {
                                          'Artificial' => 1,
                                          'Class' => '32224',
                                          'Constructor' => 1,
                                          'Header' => 'shared_ptr.h',
                                          'InLine' => 1,
                                          'Line' => '204',
                                          'MnglName' => '_ZNSt10shared_ptrIN13opentelemetry2v15trace4SpanEEC2ERKS4_',
                                          'Param' => {
                                                       '0' => {
                                                                'name' => 'this',
                                                                'type' => '115634'
                                                              },
                                                       '1' => {
                                                                'name' => 'p1',
                                                                'type' => '115639'
                                                              }
                                                     },
                                          'ShortName' => 'shared_ptr'
                                        },
                            '147260' => {
                                          'Artificial' => 1,
                                          'Class' => '32224',
                                          'Constructor' => 1,
                                          'Header' => 'shared_ptr.h',
                                          'InLine' => 1,
                                          'Line' => '204',
                                          'MnglName' => '_ZNSt10shared_ptrIN13opentelemetry2v15trace4SpanEEC1ERKS4_',
                                          'Param' => {
                                                       '0' => {
                                                                'name' => 'this',
                                                                'type' => '115634'
                                                              },
                                                       '1' => {
                                                                'name' => 'p1',
                                                                'type' => '115639'
                                                              }
                                                     },
                                          'ShortName' => 'shared_ptr'
                                        },
                            '147316' => {
                                          'Artificial' => 1,
                                          'Class' => '31540',
                                          'Constructor' => 1,
                                          'Header' => 'shared_ptr_base.h',
                                          'InLine' => 1,
                                          'Line' => '1522',
                                          'MnglName' => '_ZNSt12__shared_ptrIN13opentelemetry2v15trace4SpanELN9__gnu_cxx12_Lock_policyE2EEC2ERKS6_',
                                          'Param' => {
                                                       '0' => {
                                                                'name' => 'this',
                                                                'type' => '115589'
                                                              },
                                                       '1' => {
                                                                'name' => 'p1',
                                                                'type' => '115594'
                                                              }
                                                     },
                                          'ShortName' => '__shared_ptr'
                                        },
                            '147317' => {
                                          'Artificial' => 1,
                                          'Class' => '31540',
                                          'Constructor' => 1,
                                          'Header' => 'shared_ptr_base.h',
                                          'InLine' => 1,
                                          'Line' => '1522',
                                          'MnglName' => '_ZNSt12__shared_ptrIN13opentelemetry2v15trace4SpanELN9__gnu_cxx12_Lock_policyE2EEC1ERKS6_',
                                          'Param' => {
                                                       '0' => {
                                                                'name' => 'this',
                                                                'type' => '115589'
                                                              },
                                                       '1' => {
                                                                'name' => 'p1',
                                                                'type' => '115594'
                                                              }
                                                     },
                                          'ShortName' => '__shared_ptr'
                                        },
                            '147428' => {
                                          'Artificial' => 1,
                                          'Class' => '92508',
                                          'Constructor' => 1,
                                          'Header' => 'key_value_iterable_view.h',
                                          'InLine' => 1,
                                          'Line' => '54',
                                          'MnglName' => '_ZN13opentelemetry2v16common20KeyValueIterableViewINS0_5nostd4spanIKSt4pairINS3_11string_viewEN4absl7otel_v17variantIJbiljdPKcS6_NS4_IKbLm18446744073709551615EEENS4_IKiLm18446744073709551615EEENS4_IKlLm18446744073709551615EEENS4_IKjLm18446744073709551615EEENS4_IKdLm18446744073709551615EEENS4_IKS6_Lm18446744073709551615EEEmNS4_IKmLm18446744073709551615EEENS4_IKhLm18446744073709551615EEEEEEELm18446744073709551615EEEEC2ERKSV_',
                                          'Param' => {
                                                       '0' => {
                                                                'name' => 'this',
                                                                'type' => '119022'
                                                              },
                                                       '1' => {
                                                                'name' => 'container',
                                                                'type' => '115384'
                                                              }
                                                     },
                                          'ShortName' => 'KeyValueIterableView'
                                        },
                            '147429' => {
                                          'Artificial' => 1,
                                          'Class' => '92508',
                                          'Constructor' => 1,
                                          'Header' => 'key_value_iterable_view.h',
                                          'InLine' => 1,
                                          'Line' => '54',
                                          'MnglName' => '_ZN13opentelemetry2v16common20KeyValueIterableViewINS0_5nostd4spanIKSt4pairINS3_11string_viewEN4absl7otel_v17variantIJbiljdPKcS6_NS4_IKbLm18446744073709551615EEENS4_IKiLm18446744073709551615EEENS4_IKlLm18446744073709551615EEENS4_IKjLm18446744073709551615EEENS4_IKdLm18446744073709551615EEENS4_IKS6_Lm18446744073709551615EEEmNS4_IKmLm18446744073709551615EEENS4_IKhLm18446744073709551615EEEEEEELm18446744073709551615EEEEC1ERKSV_',
                                          'Param' => {
                                                       '0' => {
                                                                'name' => 'this',
                                                                'type' => '119022'
                                                              },
                                                       '1' => {
                                                                'name' => 'container',
                                                                'type' => '115384'
                                                              }
                                                     },
                                          'ShortName' => 'KeyValueIterableView'
                                        },
                            '147482' => {
                                          'Artificial' => 1,
                                          'Class' => '91991',
                                          'Constructor' => 1,
                                          'Header' => 'key_value_iterable.h',
                                          'InLine' => 1,
                                          'Line' => '16',
                                          'MnglName' => '_ZN13opentelemetry2v16common16KeyValueIterableC2Ev',
                                          'Param' => {
                                                       '0' => {
                                                                'name' => 'this',
                                                                'type' => '119371'
                                                              }
                                                     },
                                          'ShortName' => 'KeyValueIterable'
                                        },
                            '147483' => {
                                          'Artificial' => 1,
                                          'Class' => '91991',
                                          'Constructor' => 1,
                                          'Header' => 'key_value_iterable.h',
                                          'InLine' => 1,
                                          'Line' => '16',
                                          'MnglName' => '_ZN13opentelemetry2v16common16KeyValueIterableC1Ev',
                                          'Param' => {
                                                       '0' => {
                                                                'name' => 'this',
                                                                'type' => '119371'
                                                              }
                                                     },
                                          'ShortName' => 'KeyValueIterable'
                                        },
                            '148251' => {
                                          'Artificial' => 1,
                                          'Class' => '90819',
                                          'Destructor' => 1,
                                          'Header' => 'kv_properties.h',
                                          'InLine' => 1,
                                          'Line' => '137',
                                          'MnglName' => '_ZN13opentelemetry2v16common18KeyValuePropertiesD2Ev',
                                          'Param' => {
                                                       '0' => {
                                                                'name' => 'this',
                                                                'type' => '113565'
                                                              }
                                                     },
                                          'ShortName' => 'KeyValueProperties'
                                        },
                            '148252' => {
                                          'Artificial' => 1,
                                          'Class' => '90819',
                                          'Destructor' => 1,
                                          'Header' => 'kv_properties.h',
                                          'InLine' => 1,
                                          'Line' => '137',
                                          'MnglName' => '_ZN13opentelemetry2v16common18KeyValuePropertiesD0Ev',
                                          'Param' => {
                                                       '0' => {
                                                                'name' => 'this',
                                                                'type' => '113565'
                                                              }
                                                     },
                                          'ShortName' => 'KeyValueProperties'
                                        },
                            '148488' => {
                                          'Artificial' => 1,
                                          'Class' => '78803',
                                          'Constructor' => 1,
                                          'Header' => 'shared_ptr.h',
                                          'InLine' => 1,
                                          'Line' => '37',
                                          'MnglName' => '_ZN13opentelemetry2v15nostd10shared_ptrINS0_5trace10TraceStateEE18shared_ptr_wrapperC2ERKS6_',
                                          'Param' => {
                                                       '0' => {
                                                                'name' => 'this',
                                                                'type' => '119331'
                                                              },
                                                       '1' => {
                                                                'name' => 'p1',
                                                                'type' => '114853'
                                                              }
                                                     },
                                          'Reg' => {
                                                     '0' => 'rdi',
                                                     '1' => 'rsi'
                                                   },
                                          'ShortName' => 'shared_ptr_wrapper'
                                        },
                            '148489' => {
                                          'Artificial' => 1,
                                          'Class' => '78803',
                                          'Constructor' => 1,
                                          'Header' => 'shared_ptr.h',
                                          'InLine' => 1,
                                          'Line' => '37',
                                          'MnglName' => '_ZN13opentelemetry2v15nostd10shared_ptrINS0_5trace10TraceStateEE18shared_ptr_wrapperC1ERKS6_',
                                          'Param' => {
                                                       '0' => {
                                                                'name' => 'this',
                                                                'type' => '119331'
                                                              },
                                                       '1' => {
                                                                'name' => 'p1',
                                                                'type' => '114853'
                                                              }
                                                     },
                                          'Reg' => {
                                                     '0' => 'rdi',
                                                     '1' => 'rsi'
                                                   },
                                          'ShortName' => 'shared_ptr_wrapper'
                                        },
                            '148729' => {
                                          'Artificial' => 1,
                                          'Class' => '21886',
                                          'Constructor' => 1,
                                          'Header' => 'shared_ptr.h',
                                          'InLine' => 1,
                                          'Line' => '204',
                                          'MnglName' => '_ZNSt10shared_ptrIN13opentelemetry2v15trace10TraceStateEEC2ERKS4_',
                                          'Param' => {
                                                       '0' => {
                                                                'name' => 'this',
                                                                'type' => '114768'
                                                              },
                                                       '1' => {
                                                                'name' => 'p1',
                                                                'type' => '114773'
                                                              }
                                                     },
                                          'ShortName' => 'shared_ptr'
                                        },
                            '148730' => {
                                          'Artificial' => 1,
                                          'Class' => '21886',
                                          'Constructor' => 1,
                                          'Header' => 'shared_ptr.h',
                                          'InLine' => 1,
                                          'Line' => '204',
                                          'MnglName' => '_ZNSt10shared_ptrIN13opentelemetry2v15trace10TraceStateEEC1ERKS4_',
                                          'Param' => {
                                                       '0' => {
                                                                'name' => 'this',
                                                                'type' => '114768'
                                                              },
                                                       '1' => {
                                                                'name' => 'p1',
                                                                'type' => '114773'
                                                              }
                                                     },
                                          'ShortName' => 'shared_ptr'
                                        },
                            '148786' => {
                                          'Artificial' => 1,
                                          'Class' => '21202',
                                          'Constructor' => 1,
                                          'Header' => 'shared_ptr_base.h',
                                          'InLine' => 1,
                                          'Line' => '1522',
                                          'MnglName' => '_ZNSt12__shared_ptrIN13opentelemetry2v15trace10TraceStateELN9__gnu_cxx12_Lock_policyE2EEC2ERKS6_',
                                          'Param' => {
                                                       '0' => {
                                                                'name' => 'this',
                                                                'type' => '114723'
                                                              },
                                                       '1' => {
                                                                'name' => 'p1',
                                                                'type' => '114728'
                                                              }
                                                     },
                                          'ShortName' => '__shared_ptr'
                                        },
                            '148787' => {
                                          'Artificial' => 1,
                                          'Class' => '21202',
                                          'Constructor' => 1,
                                          'Header' => 'shared_ptr_base.h',
                                          'InLine' => 1,
                                          'Line' => '1522',
                                          'MnglName' => '_ZNSt12__shared_ptrIN13opentelemetry2v15trace10TraceStateELN9__gnu_cxx12_Lock_policyE2EEC1ERKS6_',
                                          'Param' => {
                                                       '0' => {
                                                                'name' => 'this',
                                                                'type' => '114723'
                                                              },
                                                       '1' => {
                                                                'name' => 'p1',
                                                                'type' => '114728'
                                                              }
                                                     },
                                          'ShortName' => '__shared_ptr'
                                        },
                            '148871' => {
                                          'Artificial' => 1,
                                          'Class' => '78803',
                                          'Destructor' => 1,
                                          'Header' => 'shared_ptr.h',
                                          'InLine' => 1,
                                          'Line' => '44',
                                          'MnglName' => '_ZN13opentelemetry2v15nostd10shared_ptrINS0_5trace10TraceStateEE18shared_ptr_wrapperD0Ev',
                                          'Param' => {
                                                       '0' => {
                                                                'name' => 'this',
                                                                'type' => '119331'
                                                              }
                                                     },
                                          'ShortName' => 'shared_ptr_wrapper',
                                          'Virt' => 1
                                        },
                            '148872' => {
                                          'Artificial' => 1,
                                          'Class' => '78803',
                                          'Destructor' => 1,
                                          'Header' => 'shared_ptr.h',
                                          'InLine' => 1,
                                          'Line' => '44',
                                          'MnglName' => '_ZN13opentelemetry2v15nostd10shared_ptrINS0_5trace10TraceStateEE18shared_ptr_wrapperD1Ev',
                                          'Param' => {
                                                       '0' => {
                                                                'name' => 'this',
                                                                'type' => '119331'
                                                              }
                                                     },
                                          'ShortName' => 'shared_ptr_wrapper',
                                          'Virt' => 1
                                        },
                            '149151' => {
                                          'Artificial' => 1,
                                          'Class' => '78803',
                                          'Destructor' => 1,
                                          'Header' => 'shared_ptr.h',
                                          'InLine' => 1,
                                          'Line' => '44',
                                          'MnglName' => '_ZN13opentelemetry2v15nostd10shared_ptrINS0_5trace10TraceStateEE18shared_ptr_wrapperD2Ev',
                                          'Param' => {
                                                       '0' => {
                                                                'name' => 'this',
                                                                'type' => '119331'
                                                              }
                                                     },
                                          'ShortName' => 'shared_ptr_wrapper',
                                          'Virt' => 1
                                        },
                            '149377' => {
                                          'Artificial' => 1,
                                          'Class' => '78803',
                                          'Constructor' => 1,
                                          'Header' => 'shared_ptr.h',
                                          'InLine' => 1,
                                          'Line' => '42',
                                          'MnglName' => '_ZN13opentelemetry2v15nostd10shared_ptrINS0_5trace10TraceStateEE18shared_ptr_wrapperC2EOSt10shared_ptrIS4_E',
                                          'Param' => {
                                                       '0' => {
                                                                'name' => 'this',
                                                                'type' => '119331'
                                                              },
                                                       '1' => {
                                                                'name' => 'ptr',
                                                                'type' => '114778'
                                                              }
                                                     },
                                          'ShortName' => 'shared_ptr_wrapper'
                                        },
                            '149378' => {
                                          'Artificial' => 1,
                                          'Class' => '78803',
                                          'Constructor' => 1,
                                          'Header' => 'shared_ptr.h',
                                          'InLine' => 1,
                                          'Line' => '42',
                                          'MnglName' => '_ZN13opentelemetry2v15nostd10shared_ptrINS0_5trace10TraceStateEE18shared_ptr_wrapperC1EOSt10shared_ptrIS4_E',
                                          'Param' => {
                                                       '0' => {
                                                                'name' => 'this',
                                                                'type' => '119331'
                                                              },
                                                       '1' => {
                                                                'name' => 'ptr',
                                                                'type' => '114778'
                                                              }
                                                     },
                                          'ShortName' => 'shared_ptr_wrapper'
                                        },
                            '149450' => {
                                          'Artificial' => 1,
                                          'Class' => '21886',
                                          'Constructor' => 1,
                                          'Header' => 'shared_ptr.h',
                                          'InLine' => 1,
                                          'Line' => '214',
                                          'MnglName' => '_ZNSt10shared_ptrIN13opentelemetry2v15trace10TraceStateEEC2IS3_vEEPT_',
                                          'Param' => {
                                                       '0' => {
                                                                'name' => 'this',
                                                                'type' => '114768'
                                                              },
                                                       '1' => {
                                                                'name' => '__p',
                                                                'type' => '114693'
                                                              }
                                                     },
                                          'ShortName' => 'shared_ptr<opentelemetry::v1::trace::TraceState>',
                                          'TParam' => {
                                                        '0' => {
                                                                 'key' => '_Yp',
                                                                 'type' => '62092'
                                                               }
                                                      }
                                        },
                            '149451' => {
                                          'Artificial' => 1,
                                          'Class' => '21886',
                                          'Constructor' => 1,
                                          'Header' => 'shared_ptr.h',
                                          'InLine' => 1,
                                          'Line' => '214',
                                          'MnglName' => '_ZNSt10shared_ptrIN13opentelemetry2v15trace10TraceStateEEC1IS3_vEEPT_',
                                          'Param' => {
                                                       '0' => {
                                                                'name' => 'this',
                                                                'type' => '114768'
                                                              },
                                                       '1' => {
                                                                'name' => '__p',
                                                                'type' => '114693'
                                                              }
                                                     },
                                          'ShortName' => 'shared_ptr<opentelemetry::v1::trace::TraceState>',
                                          'TParam' => {
                                                        '0' => {
                                                                 'key' => '_Yp',
                                                                 'type' => '62092'
                                                               }
                                                      }
                                        },
                            '149899' => {
                                          'Artificial' => 1,
                                          'Class' => '16411',
                                          'Destructor' => 1,
                                          'Header' => 'shared_ptr_base.h',
                                          'InLine' => 1,
                                          'Line' => '133',
                                          'MnglName' => '_ZNSt16_Sp_counted_baseILN9__gnu_cxx12_Lock_policyE2EED0Ev',
                                          'Param' => {
                                                       '0' => {
                                                                'name' => 'this',
                                                                'type' => '113731'
                                                              }
                                                     },
                                          'ShortName' => '_Sp_counted_base',
                                          'Virt' => 1
                                        },
                            '149900' => {
                                          'Artificial' => 1,
                                          'Class' => '16411',
                                          'Destructor' => 1,
                                          'Header' => 'shared_ptr_base.h',
                                          'InLine' => 1,
                                          'Line' => '133',
                                          'MnglName' => '_ZNSt16_Sp_counted_baseILN9__gnu_cxx12_Lock_policyE2EED1Ev',
                                          'Param' => {
                                                       '0' => {
                                                                'name' => 'this',
                                                                'type' => '113731'
                                                              }
                                                     },
                                          'ShortName' => '_Sp_counted_base',
                                          'Virt' => 1
                                        },
                            '149922' => {
                                          'Artificial' => 1,
                                          'Class' => '16411',
                                          'Destructor' => 1,
                                          'Header' => 'shared_ptr_base.h',
                                          'InLine' => 1,
                                          'Line' => '133',
                                          'MnglName' => '_ZNSt16_Sp_counted_baseILN9__gnu_cxx12_Lock_policyE2EED2Ev',
                                          'Param' => {
                                                       '0' => {
                                                                'name' => 'this',
                                                                'type' => '113731'
                                                              }
                                                     },
                                          'ShortName' => '_Sp_counted_base',
                                          'Virt' => 1
                                        },
                            '150044' => {
                                          'Artificial' => 1,
                                          'Class' => '89196',
                                          'Constructor' => 1,
                                          'Header' => 'shared_ptr.h',
                                          'InLine' => 1,
                                          'Line' => '78',
                                          'MnglName' => '_ZN13opentelemetry2v15nostd10shared_ptrINS0_5trace14TracerProviderEEC2EPS4_',
                                          'Param' => {
                                                       '0' => {
                                                                'name' => 'this',
                                                                'type' => '118552'
                                                              },
                                                       '1' => {
                                                                'name' => 'ptr',
                                                                'type' => '89329'
                                                              }
                                                     },
                                          'Reg' => {
                                                     '0' => 'rbx'
                                                   },
                                          'ShortName' => 'shared_ptr'
                                        },
                            '150045' => {
                                          'Artificial' => 1,
                                          'Class' => '89196',
                                          'Constructor' => 1,
                                          'Header' => 'shared_ptr.h',
                                          'InLine' => 1,
                                          'Line' => '78',
                                          'MnglName' => '_ZN13opentelemetry2v15nostd10shared_ptrINS0_5trace14TracerProviderEEC1EPS4_',
                                          'Param' => {
                                                       '0' => {
                                                                'name' => 'this',
                                                                'type' => '118552'
                                                              },
                                                       '1' => {
                                                                'name' => 'ptr',
                                                                'type' => '89329'
                                                              }
                                                     },
                                          'Reg' => {
                                                     '0' => 'rbx'
                                                   },
                                          'ShortName' => 'shared_ptr'
                                        },
                            '151002' => {
                                          'Artificial' => 1,
                                          'Class' => '55012',
                                          'Destructor' => 1,
                                          'Header' => 'shared_ptr.h',
                                          'InLine' => 1,
                                          'Line' => '175',
                                          'MnglName' => '_ZNSt10shared_ptrIN13opentelemetry2v15trace14TracerProviderEED2Ev',
                                          'Param' => {
                                                       '0' => {
                                                                'name' => 'this',
                                                                'type' => '118522'
                                                              }
                                                     },
                                          'ShortName' => 'shared_ptr'
                                        },
                            '151003' => {
                                          'Artificial' => 1,
                                          'Class' => '55012',
                                          'Destructor' => 1,
                                          'Header' => 'shared_ptr.h',
                                          'InLine' => 1,
                                          'Line' => '175',
                                          'MnglName' => '_ZNSt10shared_ptrIN13opentelemetry2v15trace14TracerProviderEED0Ev',
                                          'Param' => {
                                                       '0' => {
                                                                'name' => 'this',
                                                                'type' => '118522'
                                                              }
                                                     },
                                          'ShortName' => 'shared_ptr'
                                        },
                            '151058' => {
                                          'Artificial' => 1,
                                          'Class' => '54328',
                                          'Destructor' => 1,
                                          'Header' => 'shared_ptr_base.h',
                                          'InLine' => 1,
                                          'Line' => '1524',
                                          'MnglName' => '_ZNSt12__shared_ptrIN13opentelemetry2v15trace14TracerProviderELN9__gnu_cxx12_Lock_policyE2EED2Ev',
                                          'Param' => {
                                                       '0' => {
                                                                'name' => 'this',
                                                                'type' => '118477'
                                                              }
                                                     },
                                          'ShortName' => '__shared_ptr'
                                        },
                            '151059' => {
                                          'Artificial' => 1,
                                          'Class' => '54328',
                                          'Destructor' => 1,
                                          'Header' => 'shared_ptr_base.h',
                                          'InLine' => 1,
                                          'Line' => '1524',
                                          'MnglName' => '_ZNSt12__shared_ptrIN13opentelemetry2v15trace14TracerProviderELN9__gnu_cxx12_Lock_policyE2EED0Ev',
                                          'Param' => {
                                                       '0' => {
                                                                'name' => 'this',
                                                                'type' => '118477'
                                                              }
                                                     },
                                          'ShortName' => '__shared_ptr'
                                        },
                            '151114' => {
                                          'Artificial' => 1,
                                          'Class' => '89196',
                                          'Destructor' => 1,
                                          'Header' => 'shared_ptr.h',
                                          'InLine' => 1,
                                          'Line' => '112',
                                          'MnglName' => '_ZN13opentelemetry2v15nostd10shared_ptrINS0_5trace14TracerProviderEED2Ev',
                                          'Param' => {
                                                       '0' => {
                                                                'name' => 'this',
                                                                'type' => '118552'
                                                              }
                                                     },
                                          'ShortName' => 'shared_ptr'
                                        },
                            '151115' => {
                                          'Artificial' => 1,
                                          'Class' => '89196',
                                          'Destructor' => 1,
                                          'Header' => 'shared_ptr.h',
                                          'InLine' => 1,
                                          'Line' => '112',
                                          'MnglName' => '_ZN13opentelemetry2v15nostd10shared_ptrINS0_5trace14TracerProviderEED0Ev',
                                          'Param' => {
                                                       '0' => {
                                                                'name' => 'this',
                                                                'type' => '118552'
                                                              }
                                                     },
                                          'ShortName' => 'shared_ptr'
                                        },
                            '151267' => {
                                          'Artificial' => 1,
                                          'Class' => '89196',
                                          'Constructor' => 1,
                                          'Header' => 'shared_ptr.h',
                                          'InLine' => 1,
                                          'Line' => '98',
                                          'MnglName' => '_ZN13opentelemetry2v15nostd10shared_ptrINS0_5trace14TracerProviderEEC2ERKS5_',
                                          'Param' => {
                                                       '0' => {
                                                                'name' => 'this',
                                                                'type' => '118552'
                                                              },
                                                       '1' => {
                                                                'name' => 'other',
                                                                'type' => '118567'
                                                              }
                                                     },
                                          'ShortName' => 'shared_ptr'
                                        },
                            '151268' => {
                                          'Artificial' => 1,
                                          'Class' => '89196',
                                          'Constructor' => 1,
                                          'Header' => 'shared_ptr.h',
                                          'InLine' => 1,
                                          'Line' => '98',
                                          'MnglName' => '_ZN13opentelemetry2v15nostd10shared_ptrINS0_5trace14TracerProviderEEC1ERKS5_',
                                          'Param' => {
                                                       '0' => {
                                                                'name' => 'this',
                                                                'type' => '118552'
                                                              },
                                                       '1' => {
                                                                'name' => 'other',
                                                                'type' => '118567'
                                                              }
                                                     },
                                          'ShortName' => 'shared_ptr'
                                        },
                            '152222' => {
                                          'Artificial' => 1,
                                          'Class' => '27102',
                                          'Constructor' => 1,
                                          'Header' => 'chrono.h',
                                          'InLine' => 1,
                                          'Line' => '505',
                                          'MnglName' => '_ZNSt6chrono8durationIlSt5ratioILl1ELl1000EEEC2IlvEERKT_',
                                          'Param' => {
                                                       '0' => {
                                                                'name' => 'this',
                                                                'type' => '115228'
                                                              },
                                                       '1' => {
                                                                'name' => '__rep',
                                                                'type' => '113210'
                                                              }
                                                     },
                                          'ShortName' => 'duration<long>',
                                          'TParam' => {
                                                        '0' => {
                                                                 'key' => '_Rep2',
                                                                 'type' => '202'
                                                               }
                                                      }
                                        },
                            '152223' => {
                                          'Artificial' => 1,
                                          'Class' => '27102',
                                          'Constructor' => 1,
                                          'Header' => 'chrono.h',
                                          'InLine' => 1,
                                          'Line' => '505',
                                          'MnglName' => '_ZNSt6chrono8durationIlSt5ratioILl1ELl1000EEEC1IlvEERKT_',
                                          'Param' => {
                                                       '0' => {
                                                                'name' => 'this',
                                                                'type' => '115228'
                                                              },
                                                       '1' => {
                                                                'name' => '__rep',
                                                                'type' => '113210'
                                                              }
                                                     },
                                          'ShortName' => 'duration<long>',
                                          'TParam' => {
                                                        '0' => {
                                                                 'key' => '_Rep2',
                                                                 'type' => '202'
                                                               }
                                                      }
                                        },
                            '152305' => {
                                          'Artificial' => 1,
                                          'Class' => '27102',
                                          'Constructor' => 1,
                                          'Header' => 'chrono.h',
                                          'InLine' => 1,
                                          'Line' => '505',
                                          'MnglName' => '_ZNSt6chrono8durationIlSt5ratioILl1ELl1000EEEC2IivEERKT_',
                                          'Param' => {
                                                       '0' => {
                                                                'name' => 'this',
                                                                'type' => '115228'
                                                              },
                                                       '1' => {
                                                                'name' => '__rep',
                                                                'type' => '102277'
                                                              }
                                                     },
                                          'ShortName' => 'duration<int>',
                                          'TParam' => {
                                                        '0' => {
                                                                 'key' => '_Rep2',
                                                                 'type' => '165'
                                                               }
                                                      }
                                        },
                            '152306' => {
                                          'Artificial' => 1,
                                          'Class' => '27102',
                                          'Constructor' => 1,
                                          'Header' => 'chrono.h',
                                          'InLine' => 1,
                                          'Line' => '505',
                                          'MnglName' => '_ZNSt6chrono8durationIlSt5ratioILl1ELl1000EEEC1IivEERKT_',
                                          'Param' => {
                                                       '0' => {
                                                                'name' => 'this',
                                                                'type' => '115228'
                                                              },
                                                       '1' => {
                                                                'name' => '__rep',
                                                                'type' => '102277'
                                                              }
                                                     },
                                          'ShortName' => 'duration<int>',
                                          'TParam' => {
                                                        '0' => {
                                                                 'key' => '_Rep2',
                                                                 'type' => '165'
                                                               }
                                                      }
                                        },
                            '152540' => {
                                          'Artificial' => 1,
                                          'Class' => '50947',
                                          'Constructor' => 1,
                                          'Header' => 'atomic_base.h',
                                          'InLine' => 1,
                                          'Line' => '345',
                                          'MnglName' => '_ZNSt13__atomic_baseIbEC2Eb',
                                          'Param' => {
                                                       '0' => {
                                                                'name' => 'this',
                                                                'type' => '118337'
                                                              },
                                                       '1' => {
                                                                'name' => '__i',
                                                                'type' => '50984'
                                                              }
                                                     },
                                          'ShortName' => '__atomic_base'
                                        },
                            '152541' => {
                                          'Artificial' => 1,
                                          'Class' => '50947',
                                          'Constructor' => 1,
                                          'Header' => 'atomic_base.h',
                                          'InLine' => 1,
                                          'Line' => '345',
                                          'MnglName' => '_ZNSt13__atomic_baseIbEC1Eb',
                                          'Param' => {
                                                       '0' => {
                                                                'name' => 'this',
                                                                'type' => '118337'
                                                              },
                                                       '1' => {
                                                                'name' => '__i',
                                                                'type' => '50984'
                                                              }
                                                     },
                                          'ShortName' => '__atomic_base'
                                        },
                            '152604' => {
                                          'Artificial' => 1,
                                          'Class' => '86029',
                                          'Constructor' => 1,
                                          'Header' => 'shared_ptr.h',
                                          'InLine' => 1,
                                          'Line' => '98',
                                          'MnglName' => '_ZN13opentelemetry2v15nostd10shared_ptrINS0_5trace6TracerEEC2ERKS5_',
                                          'Param' => {
                                                       '0' => {
                                                                'name' => 'this',
                                                                'type' => '117717'
                                                              },
                                                       '1' => {
                                                                'name' => 'other',
                                                                'type' => '117732'
                                                              }
                                                     },
                                          'ShortName' => 'shared_ptr'
                                        },
                            '152605' => {
                                          'Artificial' => 1,
                                          'Class' => '86029',
                                          'Constructor' => 1,
                                          'Header' => 'shared_ptr.h',
                                          'InLine' => 1,
                                          'Line' => '98',
                                          'MnglName' => '_ZN13opentelemetry2v15nostd10shared_ptrINS0_5trace6TracerEEC1ERKS5_',
                                          'Param' => {
                                                       '0' => {
                                                                'name' => 'this',
                                                                'type' => '117717'
                                                              },
                                                       '1' => {
                                                                'name' => 'other',
                                                                'type' => '117732'
                                                              }
                                                     },
                                          'ShortName' => 'shared_ptr'
                                        },
                            '152665' => {
                                          'Artificial' => 1,
                                          'Class' => '86029',
                                          'Destructor' => 1,
                                          'Header' => 'shared_ptr.h',
                                          'InLine' => 1,
                                          'Line' => '112',
                                          'MnglName' => '_ZN13opentelemetry2v15nostd10shared_ptrINS0_5trace6TracerEED2Ev',
                                          'Param' => {
                                                       '0' => {
                                                                'name' => 'this',
                                                                'type' => '117717'
                                                              }
                                                     },
                                          'ShortName' => 'shared_ptr'
                                        },
                            '152666' => {
                                          'Artificial' => 1,
                                          'Class' => '86029',
                                          'Destructor' => 1,
                                          'Header' => 'shared_ptr.h',
                                          'InLine' => 1,
                                          'Line' => '112',
                                          'MnglName' => '_ZN13opentelemetry2v15nostd10shared_ptrINS0_5trace6TracerEED0Ev',
                                          'Param' => {
                                                       '0' => {
                                                                'name' => 'this',
                                                                'type' => '117717'
                                                              }
                                                     },
                                          'ShortName' => 'shared_ptr'
                                        },
                            '152731' => {
                                          'Artificial' => 1,
                                          'Class' => '86029',
                                          'Constructor' => 1,
                                          'Header' => 'shared_ptr.h',
                                          'InLine' => 1,
                                          'Line' => '93',
                                          'MnglName' => '_ZN13opentelemetry2v15nostd10shared_ptrINS0_5trace6TracerEEC2INS3_10NoopTracerELPv0EEEONS2_IT_EE',
                                          'Param' => {
                                                       '0' => {
                                                                'name' => 'this',
                                                                'type' => '117717'
                                                              },
                                                       '1' => {
                                                                'name' => 'other',
                                                                'type' => '117792'
                                                              }
                                                     },
                                          'ShortName' => 'shared_ptr<opentelemetry::v1::trace::NoopTracer>',
                                          'TParam' => {
                                                        '0' => {
                                                                 'key' => 'U',
                                                                 'type' => '64849'
                                                               }
                                                      }
                                        },
                            '152732' => {
                                          'Artificial' => 1,
                                          'Class' => '86029',
                                          'Constructor' => 1,
                                          'Header' => 'shared_ptr.h',
                                          'InLine' => 1,
                                          'Line' => '93',
                                          'MnglName' => '_ZN13opentelemetry2v15nostd10shared_ptrINS0_5trace6TracerEEC1INS3_10NoopTracerELPv0EEEONS2_IT_EE',
                                          'Param' => {
                                                       '0' => {
                                                                'name' => 'this',
                                                                'type' => '117717'
                                                              },
                                                       '1' => {
                                                                'name' => 'other',
                                                                'type' => '117792'
                                                              }
                                                     },
                                          'ShortName' => 'shared_ptr<opentelemetry::v1::trace::NoopTracer>',
                                          'TParam' => {
                                                        '0' => {
                                                                 'key' => 'U',
                                                                 'type' => '64849'
                                                               }
                                                      }
                                        },
                            '152799' => {
                                          'Artificial' => 1,
                                          'Class' => '87614',
                                          'Destructor' => 1,
                                          'Header' => 'shared_ptr.h',
                                          'InLine' => 1,
                                          'Line' => '112',
                                          'MnglName' => '_ZN13opentelemetry2v15nostd10shared_ptrINS0_5trace10NoopTracerEED2Ev',
                                          'Param' => {
                                                       '0' => {
                                                                'name' => 'this',
                                                                'type' => '117782'
                                                              }
                                                     },
                                          'ShortName' => 'shared_ptr'
                                        },
                            '152800' => {
                                          'Artificial' => 1,
                                          'Class' => '87614',
                                          'Destructor' => 1,
                                          'Header' => 'shared_ptr.h',
                                          'InLine' => 1,
                                          'Line' => '112',
                                          'MnglName' => '_ZN13opentelemetry2v15nostd10shared_ptrINS0_5trace10NoopTracerEED0Ev',
                                          'Param' => {
                                                       '0' => {
                                                                'name' => 'this',
                                                                'type' => '117782'
                                                              }
                                                     },
                                          'ShortName' => 'shared_ptr'
                                        },
                            '152873' => {
                                          'Artificial' => 1,
                                          'Class' => '87614',
                                          'Constructor' => 1,
                                          'Header' => 'shared_ptr.h',
                                          'InLine' => 1,
                                          'Line' => '78',
                                          'MnglName' => '_ZN13opentelemetry2v15nostd10shared_ptrINS0_5trace10NoopTracerEEC2EPS4_',
                                          'Param' => {
                                                       '0' => {
                                                                'name' => 'this',
                                                                'type' => '117782'
                                                              },
                                                       '1' => {
                                                                'name' => 'ptr',
                                                                'type' => '87747'
                                                              }
                                                     },
                                          'Reg' => {
                                                     '0' => 'rbx'
                                                   },
                                          'ShortName' => 'shared_ptr'
                                        },
                            '152874' => {
                                          'Artificial' => 1,
                                          'Class' => '87614',
                                          'Constructor' => 1,
                                          'Header' => 'shared_ptr.h',
                                          'InLine' => 1,
                                          'Line' => '78',
                                          'MnglName' => '_ZN13opentelemetry2v15nostd10shared_ptrINS0_5trace10NoopTracerEEC1EPS4_',
                                          'Param' => {
                                                       '0' => {
                                                                'name' => 'this',
                                                                'type' => '117782'
                                                              },
                                                       '1' => {
                                                                'name' => 'ptr',
                                                                'type' => '87747'
                                                              }
                                                     },
                                          'Reg' => {
                                                     '0' => 'rbx'
                                                   },
                                          'ShortName' => 'shared_ptr'
                                        },
                            '153642' => {
                                          'Artificial' => 1,
                                          'Class' => '45048',
                                          'Destructor' => 1,
                                          'Header' => 'shared_ptr.h',
                                          'InLine' => 1,
                                          'Line' => '930',
                                          'MnglName' => '_ZNSt23enable_shared_from_thisIN13opentelemetry2v15trace10NoopTracerEED2Ev',
                                          'Param' => {
                                                       '0' => {
                                                                'name' => 'this',
                                                                'type' => '117607'
                                                              }
                                                     },
                                          'Protected' => 1,
                                          'ShortName' => 'enable_shared_from_this'
                                        },
                            '153643' => {
                                          'Artificial' => 1,
                                          'Class' => '45048',
                                          'Destructor' => 1,
                                          'Header' => 'shared_ptr.h',
                                          'InLine' => 1,
                                          'Line' => '930',
                                          'MnglName' => '_ZNSt23enable_shared_from_thisIN13opentelemetry2v15trace10NoopTracerEED0Ev',
                                          'Param' => {
                                                       '0' => {
                                                                'name' => 'this',
                                                                'type' => '117607'
                                                              }
                                                     },
                                          'Protected' => 1,
                                          'ShortName' => 'enable_shared_from_this'
                                        },
                            '153689' => {
                                          'Artificial' => 1,
                                          'Class' => '45048',
                                          'Constructor' => 1,
                                          'Header' => 'shared_ptr.h',
                                          'InLine' => 1,
                                          'Line' => '922',
                                          'MnglName' => '_ZNSt23enable_shared_from_thisIN13opentelemetry2v15trace10NoopTracerEEC2Ev',
                                          'Param' => {
                                                       '0' => {
                                                                'name' => 'this',
                                                                'type' => '117607'
                                                              }
                                                     },
                                          'Protected' => 1,
                                          'ShortName' => 'enable_shared_from_this'
                                        },
                            '153690' => {
                                          'Artificial' => 1,
                                          'Class' => '45048',
                                          'Constructor' => 1,
                                          'Header' => 'shared_ptr.h',
                                          'InLine' => 1,
                                          'Line' => '922',
                                          'MnglName' => '_ZNSt23enable_shared_from_thisIN13opentelemetry2v15trace10NoopTracerEEC1Ev',
                                          'Param' => {
                                                       '0' => {
                                                                'name' => 'this',
                                                                'type' => '117607'
                                                              }
                                                     },
                                          'Protected' => 1,
                                          'ShortName' => 'enable_shared_from_this'
                                        },
                            '153748' => {
                                          'Artificial' => 1,
                                          'Class' => '44405',
                                          'Destructor' => 1,
                                          'Header' => 'shared_ptr.h',
                                          'InLine' => 1,
                                          'Line' => '811',
                                          'MnglName' => '_ZNSt8weak_ptrIN13opentelemetry2v15trace10NoopTracerEED2Ev',
                                          'Param' => {
                                                       '0' => {
                                                                'name' => 'this',
                                                                'type' => '117577'
                                                              }
                                                     },
                                          'ShortName' => 'weak_ptr'
                                        },
                            '153749' => {
                                          'Artificial' => 1,
                                          'Class' => '44405',
                                          'Destructor' => 1,
                                          'Header' => 'shared_ptr.h',
                                          'InLine' => 1,
                                          'Line' => '811',
                                          'MnglName' => '_ZNSt8weak_ptrIN13opentelemetry2v15trace10NoopTracerEED0Ev',
                                          'Param' => {
                                                       '0' => {
                                                                'name' => 'this',
                                                                'type' => '117577'
                                                              }
                                                     },
                                          'ShortName' => 'weak_ptr'
                                        },
                            '153795' => {
                                          'Artificial' => 1,
                                          'Class' => '44405',
                                          'Constructor' => 1,
                                          'Header' => 'shared_ptr.h',
                                          'InLine' => 1,
                                          'Line' => '824',
                                          'MnglName' => '_ZNSt8weak_ptrIN13opentelemetry2v15trace10NoopTracerEEC2Ev',
                                          'Param' => {
                                                       '0' => {
                                                                'name' => 'this',
                                                                'type' => '117577'
                                                              }
                                                     },
                                          'ShortName' => 'weak_ptr'
                                        },
                            '153796' => {
                                          'Artificial' => 1,
                                          'Class' => '44405',
                                          'Constructor' => 1,
                                          'Header' => 'shared_ptr.h',
                                          'InLine' => 1,
                                          'Line' => '824',
                                          'MnglName' => '_ZNSt8weak_ptrIN13opentelemetry2v15trace10NoopTracerEEC1Ev',
                                          'Param' => {
                                                       '0' => {
                                                                'name' => 'this',
                                                                'type' => '117577'
                                                              }
                                                     },
                                          'ShortName' => 'weak_ptr'
                                        },
                            '153851' => {
                                          'Artificial' => 1,
                                          'Class' => '43213',
                                          'Destructor' => 1,
                                          'Header' => 'shared_ptr_base.h',
                                          'InLine' => 1,
                                          'Line' => '1993',
                                          'MnglName' => '_ZNSt10__weak_ptrIN13opentelemetry2v15trace10NoopTracerELN9__gnu_cxx12_Lock_policyE2EED2Ev',
                                          'Param' => {
                                                       '0' => {
                                                                'name' => 'this',
                                                                'type' => '117527'
                                                              }
                                                     },
                                          'ShortName' => '__weak_ptr'
                                        },
                            '153852' => {
                                          'Artificial' => 1,
                                          'Class' => '43213',
                                          'Destructor' => 1,
                                          'Header' => 'shared_ptr_base.h',
                                          'InLine' => 1,
                                          'Line' => '1993',
                                          'MnglName' => '_ZNSt10__weak_ptrIN13opentelemetry2v15trace10NoopTracerELN9__gnu_cxx12_Lock_policyE2EED0Ev',
                                          'Param' => {
                                                       '0' => {
                                                                'name' => 'this',
                                                                'type' => '117527'
                                                              }
                                                     },
                                          'ShortName' => '__weak_ptr'
                                        },
                            '153920' => {
                                          'Artificial' => 1,
                                          'Class' => '42827',
                                          'Constructor' => 1,
                                          'Header' => 'shared_ptr.h',
                                          'InLine' => 1,
                                          'Line' => '368',
                                          'MnglName' => '_ZNSt10shared_ptrIN13opentelemetry2v15trace6TracerEEC2INS2_10NoopTracerEvEEOS_IT_E',
                                          'Param' => {
                                                       '0' => {
                                                                'name' => 'this',
                                                                'type' => '117467'
                                                              },
                                                       '1' => {
                                                                'name' => '__r',
                                                                'type' => '117702'
                                                              }
                                                     },
                                          'ShortName' => 'shared_ptr<opentelemetry::v1::trace::NoopTracer>',
                                          'TParam' => {
                                                        '0' => {
                                                                 'key' => '_Yp',
                                                                 'type' => '64849'
                                                               }
                                                      }
                                        },
                            '153921' => {
                                          'Artificial' => 1,
                                          'Class' => '42827',
                                          'Constructor' => 1,
                                          'Header' => 'shared_ptr.h',
                                          'InLine' => 1,
                                          'Line' => '368',
                                          'MnglName' => '_ZNSt10shared_ptrIN13opentelemetry2v15trace6TracerEEC1INS2_10NoopTracerEvEEOS_IT_E',
                                          'Param' => {
                                                       '0' => {
                                                                'name' => 'this',
                                                                'type' => '117467'
                                                              },
                                                       '1' => {
                                                                'name' => '__r',
                                                                'type' => '117702'
                                                              }
                                                     },
                                          'ShortName' => 'shared_ptr<opentelemetry::v1::trace::NoopTracer>',
                                          'TParam' => {
                                                        '0' => {
                                                                 'key' => '_Yp',
                                                                 'type' => '64849'
                                                               }
                                                      }
                                        },
                            '154038' => {
                                          'Artificial' => 1,
                                          'Class' => '84253',
                                          'Destructor' => 1,
                                          'Header' => 'unique_ptr.h',
                                          'InLine' => 1,
                                          'Line' => '64',
                                          'MnglName' => '_ZN13opentelemetry2v15nostd10unique_ptrINS0_5trace11SpanContextEED2Ev',
                                          'Param' => {
                                                       '0' => {
                                                                'name' => 'this',
                                                                'type' => '116149'
                                                              }
                                                     },
                                          'ShortName' => 'unique_ptr'
                                        },
                            '154039' => {
                                          'Artificial' => 1,
                                          'Class' => '84253',
                                          'Destructor' => 1,
                                          'Header' => 'unique_ptr.h',
                                          'InLine' => 1,
                                          'Line' => '64',
                                          'MnglName' => '_ZN13opentelemetry2v15nostd10unique_ptrINS0_5trace11SpanContextEED0Ev',
                                          'Param' => {
                                                       '0' => {
                                                                'name' => 'this',
                                                                'type' => '116149'
                                                              }
                                                     },
                                          'ShortName' => 'unique_ptr'
                                        },
                            '154097' => {
                                          'Artificial' => 1,
                                          'Class' => '84253',
                                          'Constructor' => 1,
                                          'Header' => 'unique_ptr.h',
                                          'InLine' => 1,
                                          'Line' => '50',
                                          'MnglName' => '_ZN13opentelemetry2v15nostd10unique_ptrINS0_5trace11SpanContextEEC2EPS4_',
                                          'Param' => {
                                                       '0' => {
                                                                'name' => 'this',
                                                                'type' => '116149'
                                                              },
                                                       '1' => {
                                                                'name' => 'ptr',
                                                                'type' => '84354'
                                                              }
                                                     },
                                          'ShortName' => 'unique_ptr'
                                        },
                            '154098' => {
                                          'Artificial' => 1,
                                          'Class' => '84253',
                                          'Constructor' => 1,
                                          'Header' => 'unique_ptr.h',
                                          'InLine' => 1,
                                          'Line' => '50',
                                          'MnglName' => '_ZN13opentelemetry2v15nostd10unique_ptrINS0_5trace11SpanContextEEC1EPS4_',
                                          'Param' => {
                                                       '0' => {
                                                                'name' => 'this',
                                                                'type' => '116149'
                                                              },
                                                       '1' => {
                                                                'name' => 'ptr',
                                                                'type' => '84354'
                                                              }
                                                     },
                                          'ShortName' => 'unique_ptr'
                                        },
                            '154158' => {
                                          'Artificial' => 1,
                                          'Class' => '15146',
                                          'Destructor' => 1,
                                          'Header' => 'shared_ptr_base.h',
                                          'InLine' => 1,
                                          'Line' => '1068',
                                          'MnglName' => '_ZNSt14__shared_countILN9__gnu_cxx12_Lock_policyE2EED2Ev',
                                          'Param' => {
                                                       '0' => {
                                                                'name' => 'this',
                                                                'type' => '113701'
                                                              }
                                                     },
                                          'ShortName' => '__shared_count'
                                        },
                            '154159' => {
                                          'Artificial' => 1,
                                          'Class' => '15146',
                                          'Destructor' => 1,
                                          'Header' => 'shared_ptr_base.h',
                                          'InLine' => 1,
                                          'Line' => '1068',
                                          'MnglName' => '_ZNSt14__shared_countILN9__gnu_cxx12_Lock_policyE2EED0Ev',
                                          'Param' => {
                                                       '0' => {
                                                                'name' => 'this',
                                                                'type' => '113701'
                                                              }
                                                     },
                                          'ShortName' => '__shared_count'
                                        },
                            '154218' => {
                                          'Artificial' => 1,
                                          'Class' => '15146',
                                          'Constructor' => 1,
                                          'Header' => 'shared_ptr_base.h',
                                          'InLine' => 1,
                                          'Line' => '1074',
                                          'MnglName' => '_ZNSt14__shared_countILN9__gnu_cxx12_Lock_policyE2EEC2ERKS2_',
                                          'Param' => {
                                                       '0' => {
                                                                'name' => 'this',
                                                                'type' => '113701'
                                                              },
                                                       '1' => {
                                                                'name' => '__r',
                                                                'type' => '113711'
                                                              }
                                                     },
                                          'ShortName' => '__shared_count'
                                        },
                            '154219' => {
                                          'Artificial' => 1,
                                          'Class' => '15146',
                                          'Constructor' => 1,
                                          'Header' => 'shared_ptr_base.h',
                                          'InLine' => 1,
                                          'Line' => '1074',
                                          'MnglName' => '_ZNSt14__shared_countILN9__gnu_cxx12_Lock_policyE2EEC1ERKS2_',
                                          'Param' => {
                                                       '0' => {
                                                                'name' => 'this',
                                                                'type' => '113701'
                                                              },
                                                       '1' => {
                                                                'name' => '__r',
                                                                'type' => '113711'
                                                              }
                                                     },
                                          'ShortName' => '__shared_count'
                                        },
                            '154915' => {
                                          'Artificial' => 1,
                                          'Class' => '65382',
                                          'Destructor' => 1,
                                          'Header' => 'span_context_kv_iterable_view.h',
                                          'InLine' => 1,
                                          'Line' => '52',
                                          'MnglName' => '_ZN13opentelemetry2v15trace31SpanContextKeyValueIterableViewINS0_5nostd4spanIKSt4pairINS1_11SpanContextESt16initializer_listIS5_INS3_11string_viewEN4absl7otel_v17variantIJbiljdPKcS8_NS4_IKbLm18446744073709551615EEENS4_IKiLm18446744073709551615EEENS4_IKlLm18446744073709551615EEENS4_IKjLm18446744073709551615EEENS4_IKdLm18446744073709551615EEENS4_IKS8_Lm18446744073709551615EEEmNS4_IKmLm18446744073709551615EEENS4_IKhLm18446744073709551615EEEEEEEEELm18446744073709551615EEEED0Ev',
                                          'Param' => {
                                                       '0' => {
                                                                'name' => 'this',
                                                                'type' => '118992'
                                                              }
                                                     },
                                          'ShortName' => 'SpanContextKeyValueIterableView',
                                          'Virt' => 1
                                        },
                            '154916' => {
                                          'Artificial' => 1,
                                          'Class' => '65382',
                                          'Destructor' => 1,
                                          'Header' => 'span_context_kv_iterable_view.h',
                                          'InLine' => 1,
                                          'Line' => '52',
                                          'MnglName' => '_ZN13opentelemetry2v15trace31SpanContextKeyValueIterableViewINS0_5nostd4spanIKSt4pairINS1_11SpanContextESt16initializer_listIS5_INS3_11string_viewEN4absl7otel_v17variantIJbiljdPKcS8_NS4_IKbLm18446744073709551615EEENS4_IKiLm18446744073709551615EEENS4_IKlLm18446744073709551615EEENS4_IKjLm18446744073709551615EEENS4_IKdLm18446744073709551615EEENS4_IKS8_Lm18446744073709551615EEEmNS4_IKmLm18446744073709551615EEENS4_IKhLm18446744073709551615EEEEEEEEELm18446744073709551615EEEED1Ev',
                                          'Param' => {
                                                       '0' => {
                                                                'name' => 'this',
                                                                'type' => '118992'
                                                              }
                                                     },
                                          'ShortName' => 'SpanContextKeyValueIterableView',
                                          'Virt' => 1
                                        },
                            '155088' => {
                                          'Artificial' => 1,
                                          'Class' => '65382',
                                          'Destructor' => 1,
                                          'Header' => 'span_context_kv_iterable_view.h',
                                          'InLine' => 1,
                                          'Line' => '52',
                                          'MnglName' => '_ZN13opentelemetry2v15trace31SpanContextKeyValueIterableViewINS0_5nostd4spanIKSt4pairINS1_11SpanContextESt16initializer_listIS5_INS3_11string_viewEN4absl7otel_v17variantIJbiljdPKcS8_NS4_IKbLm18446744073709551615EEENS4_IKiLm18446744073709551615EEENS4_IKlLm18446744073709551615EEENS4_IKjLm18446744073709551615EEENS4_IKdLm18446744073709551615EEENS4_IKS8_Lm18446744073709551615EEEmNS4_IKmLm18446744073709551615EEENS4_IKhLm18446744073709551615EEEEEEEEELm18446744073709551615EEEED2Ev',
                                          'Param' => {
                                                       '0' => {
                                                                'name' => 'this',
                                                                'type' => '118992'
                                                              }
                                                     },
                                          'Reg' => {
                                                     '0' => 'rdi'
                                                   },
                                          'ShortName' => 'SpanContextKeyValueIterableView',
                                          'Virt' => 1
                                        },
                            '155259' => {
                                          'Artificial' => 1,
                                          'Class' => '85604',
                                          'Constructor' => 1,
                                          'Header' => 'span.h',
                                          'InLine' => 1,
                                          'Line' => '198',
                                          'MnglName' => '_ZN13opentelemetry2v15nostd4spanIKSt4pairINS0_5trace11SpanContextESt16initializer_listIS3_INS1_11string_viewEN4absl7otel_v17variantIJbiljdPKcS7_NS2_IKbLm18446744073709551615EEENS2_IKiLm18446744073709551615EEENS2_IKlLm18446744073709551615EEENS2_IKjLm18446744073709551615EEENS2_IKdLm18446744073709551615EEENS2_IKS7_Lm18446744073709551615EEEmNS2_IKmLm18446744073709551615EEENS2_IKhLm18446744073709551615EEEEEEEEELm18446744073709551615EEC2EPSX_SZ_',
                                          'Param' => {
                                                       '0' => {
                                                                'name' => 'this',
                                                                'type' => '117334'
                                                              },
                                                       '1' => {
                                                                'name' => 'first',
                                                                'type' => '117304'
                                                              },
                                                       '2' => {
                                                                'name' => 'last',
                                                                'type' => '117304'
                                                              }
                                                     },
                                          'ShortName' => 'span'
                                        },
                            '155260' => {
                                          'Artificial' => 1,
                                          'Class' => '85604',
                                          'Constructor' => 1,
                                          'Header' => 'span.h',
                                          'InLine' => 1,
                                          'Line' => '198',
                                          'MnglName' => '_ZN13opentelemetry2v15nostd4spanIKSt4pairINS0_5trace11SpanContextESt16initializer_listIS3_INS1_11string_viewEN4absl7otel_v17variantIJbiljdPKcS7_NS2_IKbLm18446744073709551615EEENS2_IKiLm18446744073709551615EEENS2_IKlLm18446744073709551615EEENS2_IKjLm18446744073709551615EEENS2_IKdLm18446744073709551615EEENS2_IKS7_Lm18446744073709551615EEEmNS2_IKmLm18446744073709551615EEENS2_IKhLm18446744073709551615EEEEEEEEELm18446744073709551615EEC1EPSX_SZ_',
                                          'Param' => {
                                                       '0' => {
                                                                'name' => 'this',
                                                                'type' => '117334'
                                                              },
                                                       '1' => {
                                                                'name' => 'first',
                                                                'type' => '117304'
                                                              },
                                                       '2' => {
                                                                'name' => 'last',
                                                                'type' => '117304'
                                                              }
                                                     },
                                          'ShortName' => 'span'
                                        },
                            '155565' => {
                                          'Artificial' => 1,
                                          'Class' => '108924',
                                          'Destructor' => 1,
                                          'Header' => 'variant.h',
                                          'InLine' => 1,
                                          'Line' => '1315',
                                          'MnglName' => '_ZN4absl7otel_v116variant_internal36VariantStateBaseDestructorNontrivialIJN13opentelemetry2v15trace11SpanContextENS4_7context7ContextEEED2Ev',
                                          'Param' => {
                                                       '0' => {
                                                                'name' => 'this',
                                                                'type' => '117149'
                                                              }
                                                     },
                                          'Protected' => 1,
                                          'ShortName' => 'VariantStateBaseDestructorNontrivial'
                                        },
                            '155566' => {
                                          'Artificial' => 1,
                                          'Class' => '108924',
                                          'Destructor' => 1,
                                          'Header' => 'variant.h',
                                          'InLine' => 1,
                                          'Line' => '1315',
                                          'MnglName' => '_ZN4absl7otel_v116variant_internal36VariantStateBaseDestructorNontrivialIJN13opentelemetry2v15trace11SpanContextENS4_7context7ContextEEED0Ev',
                                          'Param' => {
                                                       '0' => {
                                                                'name' => 'this',
                                                                'type' => '117149'
                                                              }
                                                     },
                                          'Protected' => 1,
                                          'ShortName' => 'VariantStateBaseDestructorNontrivial'
                                        },
                            '155648' => {
                                          'Artificial' => 1,
                                          'Class' => '112486',
                                          'Constructor' => 1,
                                          'Header' => 'variant.h',
                                          'InLine' => 1,
                                          'Line' => '512',
                                          'MnglName' => '_ZN4absl7otel_v17variantIJN13opentelemetry2v15trace11SpanContextENS3_7context7ContextEEEC2IS5_Lm0ES5_LPv0EEEOT_',
                                          'Param' => {
                                                       '0' => {
                                                                'name' => 'this',
                                                                'type' => '117274'
                                                              },
                                                       '1' => {
                                                                'name' => 't',
                                                                'type' => '117299'
                                                              }
                                                     },
                                          'ShortName' => 'variant<opentelemetry::v1::trace::SpanContext, 0ul, opentelemetry::v1::trace::SpanContext>',
                                          'TParam' => {
                                                        '0' => {
                                                                 'key' => 'T',
                                                                 'type' => '62773'
                                                               },
                                                        '1' => {
                                                                 'key' => 'I',
                                                                 'type' => '74',
                                                                 'val' => '0'
                                                               },
                                                        '2' => {
                                                                 'key' => 'Tj',
                                                                 'type' => '62773'
                                                               }
                                                      }
                                        },
                            '155649' => {
                                          'Artificial' => 1,
                                          'Class' => '112486',
                                          'Constructor' => 1,
                                          'Header' => 'variant.h',
                                          'InLine' => 1,
                                          'Line' => '512',
                                          'MnglName' => '_ZN4absl7otel_v17variantIJN13opentelemetry2v15trace11SpanContextENS3_7context7ContextEEEC1IS5_Lm0ES5_LPv0EEEOT_',
                                          'Param' => {
                                                       '0' => {
                                                                'name' => 'this',
                                                                'type' => '117274'
                                                              },
                                                       '1' => {
                                                                'name' => 't',
                                                                'type' => '117299'
                                                              }
                                                     },
                                          'ShortName' => 'variant<opentelemetry::v1::trace::SpanContext, 0ul, opentelemetry::v1::trace::SpanContext>',
                                          'TParam' => {
                                                        '0' => {
                                                                 'key' => 'T',
                                                                 'type' => '62773'
                                                               },
                                                        '1' => {
                                                                 'key' => 'I',
                                                                 'type' => '74',
                                                                 'val' => '0'
                                                               },
                                                        '2' => {
                                                                 'key' => 'Tj',
                                                                 'type' => '62773'
                                                               }
                                                      }
                                        },
                            '156347' => {
                                          'Artificial' => 1,
                                          'Class' => '110940',
                                          'Destructor' => 1,
                                          'Header' => 'variant.h',
                                          'InLine' => 1,
                                          'Line' => '1038',
                                          'MnglName' => '_ZN4absl7otel_v116variant_internal16VariantStateBaseIN13opentelemetry2v15trace11SpanContextEJNS4_7context7ContextEEED2Ev',
                                          'Param' => {
                                                       '0' => {
                                                                'name' => 'this',
                                                                'type' => '117139'
                                                              }
                                                     },
                                          'ShortName' => 'VariantStateBase'
                                        },
                            '156348' => {
                                          'Artificial' => 1,
                                          'Class' => '110940',
                                          'Destructor' => 1,
                                          'Header' => 'variant.h',
                                          'InLine' => 1,
                                          'Line' => '1038',
                                          'MnglName' => '_ZN4absl7otel_v116variant_internal16VariantStateBaseIN13opentelemetry2v15trace11SpanContextEJNS4_7context7ContextEEED0Ev',
                                          'Param' => {
                                                       '0' => {
                                                                'name' => 'this',
                                                                'type' => '117139'
                                                              }
                                                     },
                                          'ShortName' => 'VariantStateBase'
                                        },
                            '156445' => {
                                          'Artificial' => 1,
                                          'Class' => '81708',
                                          'Constructor' => 1,
                                          'Header' => 'shared_ptr.h',
                                          'InLine' => 1,
                                          'Line' => '78',
                                          'MnglName' => '_ZN13opentelemetry2v15nostd10shared_ptrINS0_5trace4SpanEEC2EPS4_',
                                          'Param' => {
                                                       '0' => {
                                                                'name' => 'this',
                                                                'type' => '115664'
                                                              },
                                                       '1' => {
                                                                'name' => 'ptr',
                                                                'type' => '81841'
                                                              }
                                                     },
                                          'Reg' => {
                                                     '0' => 'rbx'
                                                   },
                                          'ShortName' => 'shared_ptr'
                                        },
                            '156446' => {
                                          'Artificial' => 1,
                                          'Class' => '81708',
                                          'Constructor' => 1,
                                          'Header' => 'shared_ptr.h',
                                          'InLine' => 1,
                                          'Line' => '78',
                                          'MnglName' => '_ZN13opentelemetry2v15nostd10shared_ptrINS0_5trace4SpanEEC1EPS4_',
                                          'Param' => {
                                                       '0' => {
                                                                'name' => 'this',
                                                                'type' => '115664'
                                                              },
                                                       '1' => {
                                                                'name' => 'ptr',
                                                                'type' => '81841'
                                                              }
                                                     },
                                          'Reg' => {
                                                     '0' => 'rbx'
                                                   },
                                          'ShortName' => 'shared_ptr'
                                        },
                            '157403' => {
                                          'Artificial' => 1,
                                          'Class' => '32224',
                                          'Destructor' => 1,
                                          'Header' => 'shared_ptr.h',
                                          'InLine' => 1,
                                          'Line' => '175',
                                          'MnglName' => '_ZNSt10shared_ptrIN13opentelemetry2v15trace4SpanEED2Ev',
                                          'Param' => {
                                                       '0' => {
                                                                'name' => 'this',
                                                                'type' => '115634'
                                                              }
                                                     },
                                          'ShortName' => 'shared_ptr'
                                        },
                            '157404' => {
                                          'Artificial' => 1,
                                          'Class' => '32224',
                                          'Destructor' => 1,
                                          'Header' => 'shared_ptr.h',
                                          'InLine' => 1,
                                          'Line' => '175',
                                          'MnglName' => '_ZNSt10shared_ptrIN13opentelemetry2v15trace4SpanEED0Ev',
                                          'Param' => {
                                                       '0' => {
                                                                'name' => 'this',
                                                                'type' => '115634'
                                                              }
                                                     },
                                          'ShortName' => 'shared_ptr'
                                        },
                            '157459' => {
                                          'Artificial' => 1,
                                          'Class' => '31540',
                                          'Destructor' => 1,
                                          'Header' => 'shared_ptr_base.h',
                                          'InLine' => 1,
                                          'Line' => '1524',
                                          'MnglName' => '_ZNSt12__shared_ptrIN13opentelemetry2v15trace4SpanELN9__gnu_cxx12_Lock_policyE2EED2Ev',
                                          'Param' => {
                                                       '0' => {
                                                                'name' => 'this',
                                                                'type' => '115589'
                                                              }
                                                     },
                                          'ShortName' => '__shared_ptr'
                                        },
                            '157460' => {
                                          'Artificial' => 1,
                                          'Class' => '31540',
                                          'Destructor' => 1,
                                          'Header' => 'shared_ptr_base.h',
                                          'InLine' => 1,
                                          'Line' => '1524',
                                          'MnglName' => '_ZNSt12__shared_ptrIN13opentelemetry2v15trace4SpanELN9__gnu_cxx12_Lock_policyE2EED0Ev',
                                          'Param' => {
                                                       '0' => {
                                                                'name' => 'this',
                                                                'type' => '115589'
                                                              }
                                                     },
                                          'ShortName' => '__shared_ptr'
                                        },
                            '157515' => {
                                          'Artificial' => 1,
                                          'Class' => '81708',
                                          'Destructor' => 1,
                                          'Header' => 'shared_ptr.h',
                                          'InLine' => 1,
                                          'Line' => '112',
                                          'MnglName' => '_ZN13opentelemetry2v15nostd10shared_ptrINS0_5trace4SpanEED2Ev',
                                          'Param' => {
                                                       '0' => {
                                                                'name' => 'this',
                                                                'type' => '115664'
                                                              }
                                                     },
                                          'ShortName' => 'shared_ptr'
                                        },
                            '157516' => {
                                          'Artificial' => 1,
                                          'Class' => '81708',
                                          'Destructor' => 1,
                                          'Header' => 'shared_ptr.h',
                                          'InLine' => 1,
                                          'Line' => '112',
                                          'MnglName' => '_ZN13opentelemetry2v15nostd10shared_ptrINS0_5trace4SpanEED0Ev',
                                          'Param' => {
                                                       '0' => {
                                                                'name' => 'this',
                                                                'type' => '115664'
                                                              }
                                                     },
                                          'ShortName' => 'shared_ptr'
                                        },
                            '157668' => {
                                          'Artificial' => 1,
                                          'Class' => '81708',
                                          'Constructor' => 1,
                                          'Header' => 'shared_ptr.h',
                                          'InLine' => 1,
                                          'Line' => '98',
                                          'MnglName' => '_ZN13opentelemetry2v15nostd10shared_ptrINS0_5trace4SpanEEC2ERKS5_',
                                          'Param' => {
                                                       '0' => {
                                                                'name' => 'this',
                                                                'type' => '115664'
                                                              },
                                                       '1' => {
                                                                'name' => 'other',
                                                                'type' => '115679'
                                                              }
                                                     },
                                          'ShortName' => 'shared_ptr'
                                        },
                            '157669' => {
                                          'Artificial' => 1,
                                          'Class' => '81708',
                                          'Constructor' => 1,
                                          'Header' => 'shared_ptr.h',
                                          'InLine' => 1,
                                          'Line' => '98',
                                          'MnglName' => '_ZN13opentelemetry2v15nostd10shared_ptrINS0_5trace4SpanEEC1ERKS5_',
                                          'Param' => {
                                                       '0' => {
                                                                'name' => 'this',
                                                                'type' => '115664'
                                                              },
                                                       '1' => {
                                                                'name' => 'other',
                                                                'type' => '115679'
                                                              }
                                                     },
                                          'ShortName' => 'shared_ptr'
                                        },
                            '157729' => {
                                          'Artificial' => 1,
                                          'Class' => '80160',
                                          'Destructor' => 1,
                                          'Header' => 'shared_ptr.h',
                                          'InLine' => 1,
                                          'Line' => '112',
                                          'MnglName' => '_ZN13opentelemetry2v15nostd10shared_ptrINS0_7context7Context8DataListEED2Ev',
                                          'Param' => {
                                                       '0' => {
                                                                'name' => 'this',
                                                                'type' => '115514'
                                                              }
                                                     },
                                          'ShortName' => 'shared_ptr'
                                        },
                            '157730' => {
                                          'Artificial' => 1,
                                          'Class' => '80160',
                                          'Destructor' => 1,
                                          'Header' => 'shared_ptr.h',
                                          'InLine' => 1,
                                          'Line' => '112',
                                          'MnglName' => '_ZN13opentelemetry2v15nostd10shared_ptrINS0_7context7Context8DataListEED0Ev',
                                          'Param' => {
                                                       '0' => {
                                                                'name' => 'this',
                                                                'type' => '115514'
                                                              }
                                                     },
                                          'ShortName' => 'shared_ptr'
                                        },
                            '157811' => {
                                          'Artificial' => 1,
                                          'Class' => '92508',
                                          'Destructor' => 1,
                                          'Header' => 'key_value_iterable_view.h',
                                          'InLine' => 1,
                                          'Line' => '50',
                                          'MnglName' => '_ZN13opentelemetry2v16common20KeyValueIterableViewINS0_5nostd4spanIKSt4pairINS3_11string_viewEN4absl7otel_v17variantIJbiljdPKcS6_NS4_IKbLm18446744073709551615EEENS4_IKiLm18446744073709551615EEENS4_IKlLm18446744073709551615EEENS4_IKjLm18446744073709551615EEENS4_IKdLm18446744073709551615EEENS4_IKS6_Lm18446744073709551615EEEmNS4_IKmLm18446744073709551615EEENS4_IKhLm18446744073709551615EEEEEEELm18446744073709551615EEEED0Ev',
                                          'Param' => {
                                                       '0' => {
                                                                'name' => 'this',
                                                                'type' => '119022'
                                                              }
                                                     },
                                          'ShortName' => 'KeyValueIterableView',
                                          'Virt' => 1
                                        },
                            '157812' => {
                                          'Artificial' => 1,
                                          'Class' => '92508',
                                          'Destructor' => 1,
                                          'Header' => 'key_value_iterable_view.h',
                                          'InLine' => 1,
                                          'Line' => '50',
                                          'MnglName' => '_ZN13opentelemetry2v16common20KeyValueIterableViewINS0_5nostd4spanIKSt4pairINS3_11string_viewEN4absl7otel_v17variantIJbiljdPKcS6_NS4_IKbLm18446744073709551615EEENS4_IKiLm18446744073709551615EEENS4_IKlLm18446744073709551615EEENS4_IKjLm18446744073709551615EEENS4_IKdLm18446744073709551615EEENS4_IKS6_Lm18446744073709551615EEEmNS4_IKmLm18446744073709551615EEENS4_IKhLm18446744073709551615EEEEEEELm18446744073709551615EEEED1Ev',
                                          'Param' => {
                                                       '0' => {
                                                                'name' => 'this',
                                                                'type' => '119022'
                                                              }
                                                     },
                                          'ShortName' => 'KeyValueIterableView',
                                          'Virt' => 1
                                        },
                            '157984' => {
                                          'Artificial' => 1,
                                          'Class' => '92508',
                                          'Destructor' => 1,
                                          'Header' => 'key_value_iterable_view.h',
                                          'InLine' => 1,
                                          'Line' => '50',
                                          'MnglName' => '_ZN13opentelemetry2v16common20KeyValueIterableViewINS0_5nostd4spanIKSt4pairINS3_11string_viewEN4absl7otel_v17variantIJbiljdPKcS6_NS4_IKbLm18446744073709551615EEENS4_IKiLm18446744073709551615EEENS4_IKlLm18446744073709551615EEENS4_IKjLm18446744073709551615EEENS4_IKdLm18446744073709551615EEENS4_IKS6_Lm18446744073709551615EEEmNS4_IKmLm18446744073709551615EEENS4_IKhLm18446744073709551615EEEEEEELm18446744073709551615EEEED2Ev',
                                          'Param' => {
                                                       '0' => {
                                                                'name' => 'this',
                                                                'type' => '119022'
                                                              }
                                                     },
                                          'Reg' => {
                                                     '0' => 'rdi'
                                                   },
                                          'ShortName' => 'KeyValueIterableView',
                                          'Virt' => 1
                                        },
                            '158107' => {
                                          'Artificial' => 1,
                                          'Class' => '91991',
                                          'Destructor' => 1,
                                          'Header' => 'key_value_iterable.h',
                                          'InLine' => 1,
                                          'Line' => '19',
                                          'MnglName' => '_ZN13opentelemetry2v16common16KeyValueIterableD0Ev',
                                          'Param' => {
                                                       '0' => {
                                                                'name' => 'this',
                                                                'type' => '119371'
                                                              }
                                                     },
                                          'ShortName' => 'KeyValueIterable',
                                          'Virt' => 1
                                        },
                            '158108' => {
                                          'Artificial' => 1,
                                          'Class' => '91991',
                                          'Destructor' => 1,
                                          'Header' => 'key_value_iterable.h',
                                          'InLine' => 1,
                                          'Line' => '19',
                                          'MnglName' => '_ZN13opentelemetry2v16common16KeyValueIterableD1Ev',
                                          'Param' => {
                                                       '0' => {
                                                                'name' => 'this',
                                                                'type' => '119371'
                                                              }
                                                     },
                                          'ShortName' => 'KeyValueIterable',
                                          'Virt' => 1
                                        },
                            '158130' => {
                                          'Artificial' => 1,
                                          'Class' => '91991',
                                          'Destructor' => 1,
                                          'Header' => 'key_value_iterable.h',
                                          'InLine' => 1,
                                          'Line' => '19',
                                          'MnglName' => '_ZN13opentelemetry2v16common16KeyValueIterableD2Ev',
                                          'Param' => {
                                                       '0' => {
                                                                'name' => 'this',
                                                                'type' => '119371'
                                                              }
                                                     },
                                          'ShortName' => 'KeyValueIterable',
                                          'Virt' => 1
                                        },
                            '158234' => {
                                          'Artificial' => 1,
                                          'Class' => '79735',
                                          'Constructor' => 1,
                                          'Header' => 'span.h',
                                          'InLine' => 1,
                                          'Line' => '198',
                                          'MnglName' => '_ZN13opentelemetry2v15nostd4spanIKSt4pairINS1_11string_viewEN4absl7otel_v17variantIJbiljdPKcS4_NS2_IKbLm18446744073709551615EEENS2_IKiLm18446744073709551615EEENS2_IKlLm18446744073709551615EEENS2_IKjLm18446744073709551615EEENS2_IKdLm18446744073709551615EEENS2_IKS4_Lm18446744073709551615EEEmNS2_IKmLm18446744073709551615EEENS2_IKhLm18446744073709551615EEEEEEELm18446744073709551615EEC2EPSS_SU_',
                                          'Param' => {
                                                       '0' => {
                                                                'name' => 'this',
                                                                'type' => '115379'
                                                              },
                                                       '1' => {
                                                                'name' => 'first',
                                                                'type' => '115349'
                                                              },
                                                       '2' => {
                                                                'name' => 'last',
                                                                'type' => '115349'
                                                              }
                                                     },
                                          'ShortName' => 'span'
                                        },
                            '158235' => {
                                          'Artificial' => 1,
                                          'Class' => '79735',
                                          'Constructor' => 1,
                                          'Header' => 'span.h',
                                          'InLine' => 1,
                                          'Line' => '198',
                                          'MnglName' => '_ZN13opentelemetry2v15nostd4spanIKSt4pairINS1_11string_viewEN4absl7otel_v17variantIJbiljdPKcS4_NS2_IKbLm18446744073709551615EEENS2_IKiLm18446744073709551615EEENS2_IKlLm18446744073709551615EEENS2_IKjLm18446744073709551615EEENS2_IKdLm18446744073709551615EEENS2_IKS4_Lm18446744073709551615EEEmNS2_IKmLm18446744073709551615EEENS2_IKhLm18446744073709551615EEEEEEELm18446744073709551615EEC1EPSS_SU_',
                                          'Param' => {
                                                       '0' => {
                                                                'name' => 'this',
                                                                'type' => '115379'
                                                              },
                                                       '1' => {
                                                                'name' => 'first',
                                                                'type' => '115349'
                                                              },
                                                       '2' => {
                                                                'name' => 'last',
                                                                'type' => '115349'
                                                              }
                                                     },
                                          'ShortName' => 'span'
                                        },
                            '158610' => {
                                          'Artificial' => 1,
                                          'Class' => '91497',
                                          'Constructor' => 1,
                                          'Header' => 'timestamp.h',
                                          'InLine' => 1,
                                          'Line' => '34',
                                          'MnglName' => '_ZN13opentelemetry2v16common15SystemTimestampC2IlSt5ratioILl1ELl1000000000EEEERKNSt6chrono8durationIT_T0_EE',
                                          'Param' => {
                                                       '0' => {
                                                                'name' => 'this',
                                                                'type' => '115263'
                                                              },
                                                       '1' => {
                                                                'name' => 'time_since_epoch',
                                                                'type' => '115133'
                                                              }
                                                     },
                                          'Reg' => {
                                                     '0' => 'rdi',
                                                     '1' => 'rsi'
                                                   },
                                          'ShortName' => 'SystemTimestamp<long, std::ratio<1l, 1000000000l> >',
                                          'TParam' => {
                                                        '0' => {
                                                                 'key' => 'Rep',
                                                                 'type' => '202'
                                                               },
                                                        '1' => {
                                                                 'key' => 'Period',
                                                                 'type' => '24911'
                                                               }
                                                      }
                                        },
                            '158611' => {
                                          'Artificial' => 1,
                                          'Class' => '91497',
                                          'Constructor' => 1,
                                          'Header' => 'timestamp.h',
                                          'InLine' => 1,
                                          'Line' => '34',
                                          'MnglName' => '_ZN13opentelemetry2v16common15SystemTimestampC1IlSt5ratioILl1ELl1000000000EEEERKNSt6chrono8durationIT_T0_EE',
                                          'Param' => {
                                                       '0' => {
                                                                'name' => 'this',
                                                                'type' => '115263'
                                                              },
                                                       '1' => {
                                                                'name' => 'time_since_epoch',
                                                                'type' => '115133'
                                                              }
                                                     },
                                          'Reg' => {
                                                     '0' => 'rdi',
                                                     '1' => 'rsi'
                                                   },
                                          'ShortName' => 'SystemTimestamp<long, std::ratio<1l, 1000000000l> >',
                                          'TParam' => {
                                                        '0' => {
                                                                 'key' => 'Rep',
                                                                 'type' => '202'
                                                               },
                                                        '1' => {
                                                                 'key' => 'Period',
                                                                 'type' => '24911'
                                                               }
                                                      }
                                        },
                            '159031' => {
                                          'Artificial' => 1,
                                          'Class' => '78188',
                                          'Constructor' => 1,
                                          'Header' => 'shared_ptr.h',
                                          'InLine' => 1,
                                          'Line' => '98',
                                          'MnglName' => '_ZN13opentelemetry2v15nostd10shared_ptrINS0_5trace10TraceStateEEC2ERKS5_',
                                          'Param' => {
                                                       '0' => {
                                                                'name' => 'this',
                                                                'type' => '114798'
                                                              },
                                                       '1' => {
                                                                'name' => 'other',
                                                                'type' => '114813'
                                                              }
                                                     },
                                          'ShortName' => 'shared_ptr'
                                        },
                            '159032' => {
                                          'Artificial' => 1,
                                          'Class' => '78188',
                                          'Constructor' => 1,
                                          'Header' => 'shared_ptr.h',
                                          'InLine' => 1,
                                          'Line' => '98',
                                          'MnglName' => '_ZN13opentelemetry2v15nostd10shared_ptrINS0_5trace10TraceStateEEC1ERKS5_',
                                          'Param' => {
                                                       '0' => {
                                                                'name' => 'this',
                                                                'type' => '114798'
                                                              },
                                                       '1' => {
                                                                'name' => 'other',
                                                                'type' => '114813'
                                                              }
                                                     },
                                          'ShortName' => 'shared_ptr'
                                        },
                            '159092' => {
                                          'Artificial' => 1,
                                          'Class' => '78188',
                                          'Destructor' => 1,
                                          'Header' => 'shared_ptr.h',
                                          'InLine' => 1,
                                          'Line' => '112',
                                          'MnglName' => '_ZN13opentelemetry2v15nostd10shared_ptrINS0_5trace10TraceStateEED2Ev',
                                          'Param' => {
                                                       '0' => {
                                                                'name' => 'this',
                                                                'type' => '114798'
                                                              }
                                                     },
                                          'ShortName' => 'shared_ptr'
                                        },
                            '159093' => {
                                          'Artificial' => 1,
                                          'Class' => '78188',
                                          'Destructor' => 1,
                                          'Header' => 'shared_ptr.h',
                                          'InLine' => 1,
                                          'Line' => '112',
                                          'MnglName' => '_ZN13opentelemetry2v15nostd10shared_ptrINS0_5trace10TraceStateEED0Ev',
                                          'Param' => {
                                                       '0' => {
                                                                'name' => 'this',
                                                                'type' => '114798'
                                                              }
                                                     },
                                          'ShortName' => 'shared_ptr'
                                        },
                            '159260' => {
                                          'Artificial' => 1,
                                          'Class' => '78188',
                                          'Constructor' => 1,
                                          'Header' => 'shared_ptr.h',
                                          'InLine' => 1,
                                          'Line' => '78',
                                          'MnglName' => '_ZN13opentelemetry2v15nostd10shared_ptrINS0_5trace10TraceStateEEC2EPS4_',
                                          'Param' => {
                                                       '0' => {
                                                                'name' => 'this',
                                                                'type' => '114798'
                                                              },
                                                       '1' => {
                                                                'name' => 'ptr',
                                                                'type' => '78321'
                                                              }
                                                     },
                                          'Reg' => {
                                                     '0' => 'rbx'
                                                   },
                                          'ShortName' => 'shared_ptr'
                                        },
                            '159261' => {
                                          'Artificial' => 1,
                                          'Class' => '78188',
                                          'Constructor' => 1,
                                          'Header' => 'shared_ptr.h',
                                          'InLine' => 1,
                                          'Line' => '78',
                                          'MnglName' => '_ZN13opentelemetry2v15nostd10shared_ptrINS0_5trace10TraceStateEEC1EPS4_',
                                          'Param' => {
                                                       '0' => {
                                                                'name' => 'this',
                                                                'type' => '114798'
                                                              },
                                                       '1' => {
                                                                'name' => 'ptr',
                                                                'type' => '78321'
                                                              }
                                                     },
                                          'Reg' => {
                                                     '0' => 'rbx'
                                                   },
                                          'ShortName' => 'shared_ptr'
                                        },
                            '160218' => {
                                          'Artificial' => 1,
                                          'Class' => '21886',
                                          'Destructor' => 1,
                                          'Header' => 'shared_ptr.h',
                                          'InLine' => 1,
                                          'Line' => '175',
                                          'MnglName' => '_ZNSt10shared_ptrIN13opentelemetry2v15trace10TraceStateEED2Ev',
                                          'Param' => {
                                                       '0' => {
                                                                'name' => 'this',
                                                                'type' => '114768'
                                                              }
                                                     },
                                          'ShortName' => 'shared_ptr'
                                        },
                            '160219' => {
                                          'Artificial' => 1,
                                          'Class' => '21886',
                                          'Destructor' => 1,
                                          'Header' => 'shared_ptr.h',
                                          'InLine' => 1,
                                          'Line' => '175',
                                          'MnglName' => '_ZNSt10shared_ptrIN13opentelemetry2v15trace10TraceStateEED0Ev',
                                          'Param' => {
                                                       '0' => {
                                                                'name' => 'this',
                                                                'type' => '114768'
                                                              }
                                                     },
                                          'ShortName' => 'shared_ptr'
                                        },
                            '160274' => {
                                          'Artificial' => 1,
                                          'Class' => '21202',
                                          'Destructor' => 1,
                                          'Header' => 'shared_ptr_base.h',
                                          'InLine' => 1,
                                          'Line' => '1524',
                                          'MnglName' => '_ZNSt12__shared_ptrIN13opentelemetry2v15trace10TraceStateELN9__gnu_cxx12_Lock_policyE2EED2Ev',
                                          'Param' => {
                                                       '0' => {
                                                                'name' => 'this',
                                                                'type' => '114723'
                                                              }
                                                     },
                                          'ShortName' => '__shared_ptr'
                                        },
                            '160275' => {
                                          'Artificial' => 1,
                                          'Class' => '21202',
                                          'Destructor' => 1,
                                          'Header' => 'shared_ptr_base.h',
                                          'InLine' => 1,
                                          'Line' => '1524',
                                          'MnglName' => '_ZNSt12__shared_ptrIN13opentelemetry2v15trace10TraceStateELN9__gnu_cxx12_Lock_policyE2EED0Ev',
                                          'Param' => {
                                                       '0' => {
                                                                'name' => 'this',
                                                                'type' => '114723'
                                                              }
                                                     },
                                          'ShortName' => '__shared_ptr'
                                        },
                            '160330' => {
                                          'Artificial' => 1,
                                          'Class' => '73115',
                                          'Destructor' => 1,
                                          'Header' => 'unique_ptr.h',
                                          'InLine' => 1,
                                          'Line' => '64',
                                          'MnglName' => '_ZN13opentelemetry2v15nostd10unique_ptrINS0_6common18KeyValuePropertiesEED2Ev',
                                          'Param' => {
                                                       '0' => {
                                                                'name' => 'this',
                                                                'type' => '113636'
                                                              }
                                                     },
                                          'ShortName' => 'unique_ptr'
                                        },
                            '160331' => {
                                          'Artificial' => 1,
                                          'Class' => '73115',
                                          'Destructor' => 1,
                                          'Header' => 'unique_ptr.h',
                                          'InLine' => 1,
                                          'Line' => '64',
                                          'MnglName' => '_ZN13opentelemetry2v15nostd10unique_ptrINS0_6common18KeyValuePropertiesEED0Ev',
                                          'Param' => {
                                                       '0' => {
                                                                'name' => 'this',
                                                                'type' => '113636'
                                                              }
                                                     },
                                          'ShortName' => 'unique_ptr'
                                        },
                            '160389' => {
                                          'Artificial' => 1,
                                          'Class' => '73115',
                                          'Constructor' => 1,
                                          'Header' => 'unique_ptr.h',
                                          'InLine' => 1,
                                          'Line' => '50',
                                          'MnglName' => '_ZN13opentelemetry2v15nostd10unique_ptrINS0_6common18KeyValuePropertiesEEC2EPS4_',
                                          'Param' => {
                                                       '0' => {
                                                                'name' => 'this',
                                                                'type' => '113636'
                                                              },
                                                       '1' => {
                                                                'name' => 'ptr',
                                                                'type' => '73216'
                                                              }
                                                     },
                                          'ShortName' => 'unique_ptr'
                                        },
                            '160390' => {
                                          'Artificial' => 1,
                                          'Class' => '73115',
                                          'Constructor' => 1,
                                          'Header' => 'unique_ptr.h',
                                          'InLine' => 1,
                                          'Line' => '50',
                                          'MnglName' => '_ZN13opentelemetry2v15nostd10unique_ptrINS0_6common18KeyValuePropertiesEEC1EPS4_',
                                          'Param' => {
                                                       '0' => {
                                                                'name' => 'this',
                                                                'type' => '113636'
                                                              },
                                                       '1' => {
                                                                'name' => 'ptr',
                                                                'type' => '73216'
                                                              }
                                                     },
                                          'ShortName' => 'unique_ptr'
                                        },
                            '160446' => {
                                          'Artificial' => 1,
                                          'Class' => '72316',
                                          'Constructor' => 1,
                                          'Header' => 'unique_ptr.h',
                                          'InLine' => 1,
                                          'Line' => '48',
                                          'MnglName' => '_ZN13opentelemetry2v15nostd10unique_ptrIA_NS0_6common18KeyValueProperties5EntryEEC2EDn',
                                          'Param' => {
                                                       '0' => {
                                                                'name' => 'this',
                                                                'type' => '113530'
                                                              },
                                                       '1' => {
                                                                'name' => 'p1',
                                                                'type' => '2993'
                                                              }
                                                     },
                                          'ShortName' => 'unique_ptr'
                                        },
                            '160447' => {
                                          'Artificial' => 1,
                                          'Class' => '72316',
                                          'Constructor' => 1,
                                          'Header' => 'unique_ptr.h',
                                          'InLine' => 1,
                                          'Line' => '48',
                                          'MnglName' => '_ZN13opentelemetry2v15nostd10unique_ptrIA_NS0_6common18KeyValueProperties5EntryEEC1EDn',
                                          'Param' => {
                                                       '0' => {
                                                                'name' => 'this',
                                                                'type' => '113530'
                                                              },
                                                       '1' => {
                                                                'name' => 'p1',
                                                                'type' => '2993'
                                                              }
                                                     },
                                          'ShortName' => 'unique_ptr'
                                        },
                            '160507' => {
                                          'Artificial' => 1,
                                          'Class' => '72316',
                                          'Destructor' => 1,
                                          'Header' => 'unique_ptr.h',
                                          'InLine' => 1,
                                          'Line' => '64',
                                          'MnglName' => '_ZN13opentelemetry2v15nostd10unique_ptrIA_NS0_6common18KeyValueProperties5EntryEED2Ev',
                                          'Param' => {
                                                       '0' => {
                                                                'name' => 'this',
                                                                'type' => '113530'
                                                              }
                                                     },
                                          'ShortName' => 'unique_ptr'
                                        },
                            '160508' => {
                                          'Artificial' => 1,
                                          'Class' => '72316',
                                          'Destructor' => 1,
                                          'Header' => 'unique_ptr.h',
                                          'InLine' => 1,
                                          'Line' => '64',
                                          'MnglName' => '_ZN13opentelemetry2v15nostd10unique_ptrIA_NS0_6common18KeyValueProperties5EntryEED0Ev',
                                          'Param' => {
                                                       '0' => {
                                                                'name' => 'this',
                                                                'type' => '113530'
                                                              }
                                                     },
                                          'ShortName' => 'unique_ptr'
                                        },
                            '160563' => {
                                          'Artificial' => 1,
                                          'Class' => '71766',
                                          'Destructor' => 1,
                                          'Header' => 'unique_ptr.h',
                                          'InLine' => 1,
                                          'Line' => '64',
                                          'MnglName' => '_ZN13opentelemetry2v15nostd10unique_ptrIA_KcED2Ev',
                                          'Param' => {
                                                       '0' => {
                                                                'name' => 'this',
                                                                'type' => '113465'
                                                              }
                                                     },
                                          'ShortName' => 'unique_ptr'
                                        },
                            '160564' => {
                                          'Artificial' => 1,
                                          'Class' => '71766',
                                          'Destructor' => 1,
                                          'Header' => 'unique_ptr.h',
                                          'InLine' => 1,
                                          'Line' => '64',
                                          'MnglName' => '_ZN13opentelemetry2v15nostd10unique_ptrIA_KcED0Ev',
                                          'Param' => {
                                                       '0' => {
                                                                'name' => 'this',
                                                                'type' => '113465'
                                                              }
                                                     },
                                          'ShortName' => 'unique_ptr'
                                        },
                            '160746' => {
                                          'Line' => '36',
                                          'MnglName' => '_Z18do_abi_check_tracev',
                                          'Return' => '1',
                                          'ShortName' => 'do_abi_check_trace',
                                          'Source' => 'abi_check_trace.cc'
                                        },
                            '16131' => {
                                         'Class' => '15957',
                                         'Header' => 'shared_ptr_base.h',
                                         'InLine' => 2,
                                         'Line' => '1171',
                                         'MnglName' => '_ZNSt12__weak_countILN9__gnu_cxx12_Lock_policyE2EEaSERKSt14__shared_countILS1_2EE',
                                         'Param' => {
                                                      '0' => {
                                                               'name' => 'this',
                                                               'type' => '117497'
                                                             },
                                                      '1' => {
                                                               'name' => '__r',
                                                               'type' => '113711'
                                                             }
                                                    },
                                         'Reg' => {
                                                    '0' => 'rax'
                                                  },
                                         'Return' => '117507',
                                         'ShortName' => 'operator='
                                       },
                            '16275' => {
                                         'Class' => '15957',
                                         'Const' => 1,
                                         'Header' => 'shared_ptr_base.h',
                                         'InLine' => 2,
                                         'Line' => '1213',
                                         'MnglName' => '_ZNKSt12__weak_countILN9__gnu_cxx12_Lock_policyE2EE16_M_get_use_countEv',
                                         'Param' => {
                                                      '0' => {
                                                               'name' => 'this',
                                                               'type' => '117517'
                                                             }
                                                    },
                                         'Reg' => {
                                                    '0' => 'rdi'
                                                  },
                                         'Return' => '202',
                                         'ShortName' => '_M_get_use_count'
                                       },
                            '163751' => {
                                          'Artificial' => 1,
                                          'Class' => '64207',
                                          'Destructor' => 1,
                                          'Header' => 'span_startoptions.h',
                                          'InLine' => 1,
                                          'Line' => '18',
                                          'MnglName' => '_ZN13opentelemetry2v15trace16StartSpanOptionsD2Ev',
                                          'Param' => {
                                                       '0' => {
                                                                'name' => 'this',
                                                                'type' => '163711'
                                                              }
                                                     },
                                          'ShortName' => 'StartSpanOptions'
                                        },
                            '163752' => {
                                          'Artificial' => 1,
                                          'Class' => '64207',
                                          'Destructor' => 1,
                                          'Header' => 'span_startoptions.h',
                                          'InLine' => 1,
                                          'Line' => '18',
                                          'MnglName' => '_ZN13opentelemetry2v15trace16StartSpanOptionsD0Ev',
                                          'Param' => {
                                                       '0' => {
                                                                'name' => 'this',
                                                                'type' => '163711'
                                                              }
                                                     },
                                          'ShortName' => 'StartSpanOptions'
                                        },
                            '16505' => {
                                         'Class' => '16411',
                                         'Header' => 'shared_ptr_base.h',
                                         'Line' => '139',
                                         'MnglName' => '_ZNSt16_Sp_counted_baseILN9__gnu_cxx12_Lock_policyE2EE10_M_disposeEv',
                                         'Param' => {
                                                      '0' => {
                                                               'name' => 'this',
                                                               'type' => '113726'
                                                             }
                                                    },
                                         'PureVirt' => 1,
                                         'Return' => '1',
                                         'ShortName' => '_M_dispose',
                                         'VirtPos' => '2'
                                       },
                            '16538' => {
                                         'Class' => '16411',
                                         'Header' => 'shared_ptr_base.h',
                                         'InLine' => 2,
                                         'Line' => '143',
                                         'MnglName' => '_ZNSt16_Sp_counted_baseILN9__gnu_cxx12_Lock_policyE2EE10_M_destroyEv',
                                         'Param' => {
                                                      '0' => {
                                                               'name' => 'this',
                                                               'type' => '113731'
                                                             }
                                                    },
                                         'Return' => '1',
                                         'ShortName' => '_M_destroy',
                                         'Virt' => 1,
                                         'VirtPos' => '3'
                                       },
                            '165700' => {
                                          'Artificial' => 1,
                                          'Class' => '92211',
                                          'Constructor' => 1,
                                          'Header' => 'spin_lock_mutex.h',
                                          'InLine' => 1,
                                          'Line' => '58',
                                          'MnglName' => '_ZN13opentelemetry2v16common13SpinLockMutexC2Ev',
                                          'Param' => {
                                                       '0' => {
                                                                'name' => 'this',
                                                                'type' => '118432'
                                                              }
                                                     },
                                          'ShortName' => 'SpinLockMutex'
                                        },
                            '165701' => {
                                          'Artificial' => 1,
                                          'Class' => '92211',
                                          'Constructor' => 1,
                                          'Header' => 'spin_lock_mutex.h',
                                          'InLine' => 1,
                                          'Line' => '58',
                                          'MnglName' => '_ZN13opentelemetry2v16common13SpinLockMutexC1Ev',
                                          'Param' => {
                                                       '0' => {
                                                                'name' => 'this',
                                                                'type' => '118432'
                                                              }
                                                     },
                                          'ShortName' => 'SpinLockMutex'
                                        },
                            '16571' => {
                                         'Class' => '16411',
                                         'Header' => 'shared_ptr_base.h',
                                         'Line' => '147',
                                         'MnglName' => '_ZNSt16_Sp_counted_baseILN9__gnu_cxx12_Lock_policyE2EE14_M_get_deleterERKSt9type_info',
                                         'Param' => {
                                                      '0' => {
                                                               'name' => 'this',
                                                               'type' => '113726'
                                                             },
                                                      '1' => {
                                                               'name' => 'p1',
                                                               'type' => '113069'
                                                             }
                                                    },
                                         'PureVirt' => 1,
                                         'Return' => '394',
                                         'ShortName' => '_M_get_deleter',
                                         'VirtPos' => '4'
                                       },
                            '165897' => {
                                          'Artificial' => 1,
                                          'Class' => '53086',
                                          'Constructor' => 1,
                                          'Header' => 'atomic',
                                          'InLine' => 1,
                                          'Line' => '76',
                                          'MnglName' => '_ZNSt6atomicIbEC2Eb',
                                          'Param' => {
                                                       '0' => {
                                                                'name' => 'this',
                                                                'type' => '118382'
                                                              },
                                                       '1' => {
                                                                'name' => '__i',
                                                                'type' => '93967'
                                                              }
                                                     },
                                          'ShortName' => 'atomic'
                                        },
                            '165898' => {
                                          'Artificial' => 1,
                                          'Class' => '53086',
                                          'Constructor' => 1,
                                          'Header' => 'atomic',
                                          'InLine' => 1,
                                          'Line' => '76',
                                          'MnglName' => '_ZNSt6atomicIbEC1Eb',
                                          'Param' => {
                                                       '0' => {
                                                                'name' => 'this',
                                                                'type' => '118382'
                                                              },
                                                       '1' => {
                                                                'name' => '__i',
                                                                'type' => '93967'
                                                              }
                                                     },
                                          'ShortName' => 'atomic'
                                        },
                            '16613' => {
                                         'Class' => '16411',
                                         'Header' => 'shared_ptr_base.h',
                                         'InLine' => 2,
                                         'Line' => '151',
                                         'MnglName' => '_ZNSt16_Sp_counted_baseILN9__gnu_cxx12_Lock_policyE2EE15_M_add_ref_copyEv',
                                         'Param' => {
                                                      '0' => {
                                                               'name' => 'this',
                                                               'type' => '113731'
                                                             }
                                                    },
                                         'Reg' => {
                                                    '0' => 'rdi'
                                                  },
                                         'Return' => '1',
                                         'ShortName' => '_M_add_ref_copy'
                                       },
                            '166166' => {
                                          'Artificial' => 1,
                                          'Class' => '65967',
                                          'Constructor' => 1,
                                          'Header' => 'noop.h',
                                          'InLine' => 1,
                                          'Line' => '108',
                                          'MnglName' => '_ZN13opentelemetry2v15trace18NoopTracerProviderC2Ev',
                                          'Param' => {
                                                       '0' => {
                                                                'name' => 'this',
                                                                'type' => '119131'
                                                              }
                                                     },
                                          'Reg' => {
                                                     '0' => 'rbx'
                                                   },
                                          'ShortName' => 'NoopTracerProvider'
                                        },
                            '166167' => {
                                          'Artificial' => 1,
                                          'Class' => '65967',
                                          'Constructor' => 1,
                                          'Header' => 'noop.h',
                                          'InLine' => 1,
                                          'Line' => '108',
                                          'MnglName' => '_ZN13opentelemetry2v15trace18NoopTracerProviderC1Ev',
                                          'Param' => {
                                                       '0' => {
                                                                'name' => 'this',
                                                                'type' => '119131'
                                                              }
                                                     },
                                          'Reg' => {
                                                     '0' => 'rbx'
                                                   },
                                          'ShortName' => 'NoopTracerProvider'
                                        },
                            '16665' => {
                                         'Class' => '16411',
                                         'Header' => 'shared_ptr_base.h',
                                         'InLine' => 2,
                                         'Line' => '268',
                                         'MnglName' => '_ZNSt16_Sp_counted_baseILN9__gnu_cxx12_Lock_policyE2EE23_M_add_ref_lock_nothrowEv',
                                         'Param' => {
                                                      '0' => {
                                                               'name' => 'this',
                                                               'type' => '113731'
                                                             }
                                                    },
                                         'Reg' => {
                                                    '0' => 'rdi'
                                                  },
                                         'Return' => '93967',
                                         'ShortName' => '_M_add_ref_lock_nothrow'
                                       },
                            '16697' => {
                                         'Class' => '16411',
                                         'Header' => 'shared_ptr_base.h',
                                         'InLine' => 2,
                                         'Line' => '317',
                                         'MnglName' => '_ZNSt16_Sp_counted_baseILN9__gnu_cxx12_Lock_policyE2EE10_M_releaseEv',
                                         'Param' => {
                                                      '0' => {
                                                               'name' => 'this',
                                                               'type' => '113731'
                                                             }
                                                    },
                                         'Reg' => {
                                                    '0' => 'rbx'
                                                  },
                                         'Return' => '1',
                                         'ShortName' => '_M_release'
                                       },
                            '16725' => {
                                         'Class' => '16411',
                                         'Header' => 'shared_ptr_base.h',
                                         'InLine' => 2,
                                         'Line' => '172',
                                         'MnglName' => '_ZNSt16_Sp_counted_baseILN9__gnu_cxx12_Lock_policyE2EE19_M_release_last_useEv',
                                         'Param' => {
                                                      '0' => {
                                                               'name' => 'this',
                                                               'type' => '113731'
                                                             }
                                                    },
                                         'Reg' => {
                                                    '0' => 'rbx'
                                                  },
                                         'Return' => '1',
                                         'ShortName' => '_M_release_last_use'
                                       },
                            '16751' => {
                                         'Class' => '16411',
                                         'Header' => 'shared_ptr_base.h',
                                         'InLine' => 2,
                                         'Line' => '198',
                                         'MnglName' => '_ZNSt16_Sp_counted_baseILN9__gnu_cxx12_Lock_policyE2EE24_M_release_last_use_coldEv',
                                         'Param' => {
                                                      '0' => {
                                                               'name' => 'this',
                                                               'type' => '113731'
                                                             }
                                                    },
                                         'Return' => '1',
                                         'ShortName' => '_M_release_last_use_cold'
                                       },
                            '167645' => {
                                          'Artificial' => 1,
                                          'Class' => '65215',
                                          'Destructor' => 1,
                                          'Header' => 'tracer_provider.h',
                                          'InLine' => 1,
                                          'Line' => '19',
                                          'MnglName' => '_ZN13opentelemetry2v15trace14TracerProviderD0Ev',
                                          'Param' => {
                                                       '0' => {
                                                                'name' => 'this',
                                                                'type' => '118672'
                                                              }
                                                     },
                                          'ShortName' => 'TracerProvider',
                                          'Virt' => 1
                                        },
                            '167646' => {
                                          'Artificial' => 1,
                                          'Class' => '65215',
                                          'Destructor' => 1,
                                          'Header' => 'tracer_provider.h',
                                          'InLine' => 1,
                                          'Line' => '19',
                                          'MnglName' => '_ZN13opentelemetry2v15trace14TracerProviderD1Ev',
                                          'Param' => {
                                                       '0' => {
                                                                'name' => 'this',
                                                                'type' => '118672'
                                                              }
                                                     },
                                          'ShortName' => 'TracerProvider',
                                          'Virt' => 1
                                        },
                            '167668' => {
                                          'Artificial' => 1,
                                          'Class' => '65215',
                                          'Destructor' => 1,
                                          'Header' => 'tracer_provider.h',
                                          'InLine' => 1,
                                          'Line' => '19',
                                          'MnglName' => '_ZN13opentelemetry2v15trace14TracerProviderD2Ev',
                                          'Param' => {
                                                       '0' => {
                                                                'name' => 'this',
                                                                'type' => '118672'
                                                              }
                                                     },
                                          'ShortName' => 'TracerProvider',
                                          'Virt' => 1
                                        },
                            '167717' => {
                                          'Artificial' => 1,
                                          'Class' => '65215',
                                          'Constructor' => 1,
                                          'Header' => 'tracer_provider.h',
                                          'InLine' => 1,
                                          'Line' => '16',
                                          'MnglName' => '_ZN13opentelemetry2v15trace14TracerProviderC2Ev',
                                          'Param' => {
                                                       '0' => {
                                                                'name' => 'this',
                                                                'type' => '118672'
                                                              }
                                                     },
                                          'ShortName' => 'TracerProvider'
                                        },
                            '167718' => {
                                          'Artificial' => 1,
                                          'Class' => '65215',
                                          'Constructor' => 1,
                                          'Header' => 'tracer_provider.h',
                                          'InLine' => 1,
                                          'Line' => '16',
                                          'MnglName' => '_ZN13opentelemetry2v15trace14TracerProviderC1Ev',
                                          'Param' => {
                                                       '0' => {
                                                                'name' => 'this',
                                                                'type' => '118672'
                                                              }
                                                     },
                                          'ShortName' => 'TracerProvider'
                                        },
                            '167766' => {
                                          'Artificial' => 1,
                                          'Class' => '64849',
                                          'Constructor' => 1,
                                          'Header' => 'noop.h',
                                          'InLine' => 1,
                                          'Line' => '79',
                                          'MnglName' => '_ZN13opentelemetry2v15trace10NoopTracerC2Ev',
                                          'Param' => {
                                                       '0' => {
                                                                'name' => 'this',
                                                                'type' => '117562'
                                                              }
                                                     },
                                          'ShortName' => 'NoopTracer'
                                        },
                            '167767' => {
                                          'Artificial' => 1,
                                          'Class' => '64849',
                                          'Constructor' => 1,
                                          'Header' => 'noop.h',
                                          'InLine' => 1,
                                          'Line' => '79',
                                          'MnglName' => '_ZN13opentelemetry2v15trace10NoopTracerC1Ev',
                                          'Param' => {
                                                       '0' => {
                                                                'name' => 'this',
                                                                'type' => '117562'
                                                              }
                                                     },
                                          'ShortName' => 'NoopTracer'
                                        },
                            '16777' => {
                                         'Class' => '16411',
                                         'Header' => 'shared_ptr_base.h',
                                         'InLine' => 2,
                                         'Line' => '203',
                                         'MnglName' => '_ZNSt16_Sp_counted_baseILN9__gnu_cxx12_Lock_policyE2EE15_M_weak_add_refEv',
                                         'Param' => {
                                                      '0' => {
                                                               'name' => 'this',
                                                               'type' => '113731'
                                                             }
                                                    },
                                         'Reg' => {
                                                    '0' => 'rdi'
                                                  },
                                         'Return' => '1',
                                         'ShortName' => '_M_weak_add_ref'
                                       },
                            '167822' => {
                                          'Artificial' => 1,
                                          'Class' => '64314',
                                          'Destructor' => 1,
                                          'Header' => 'tracer.h',
                                          'InLine' => 1,
                                          'Line' => '31',
                                          'MnglName' => '_ZN13opentelemetry2v15trace6TracerD0Ev',
                                          'Param' => {
                                                       '0' => {
                                                                'name' => 'this',
                                                                'type' => '118117'
                                                              }
                                                     },
                                          'ShortName' => 'Tracer',
                                          'Virt' => 1
                                        },
                            '167823' => {
                                          'Artificial' => 1,
                                          'Class' => '64314',
                                          'Destructor' => 1,
                                          'Header' => 'tracer.h',
                                          'InLine' => 1,
                                          'Line' => '31',
                                          'MnglName' => '_ZN13opentelemetry2v15trace6TracerD1Ev',
                                          'Param' => {
                                                       '0' => {
                                                                'name' => 'this',
                                                                'type' => '118117'
                                                              }
                                                     },
                                          'ShortName' => 'Tracer',
                                          'Virt' => 1
                                        },
                            '167845' => {
                                          'Artificial' => 1,
                                          'Class' => '64314',
                                          'Destructor' => 1,
                                          'Header' => 'tracer.h',
                                          'InLine' => 1,
                                          'Line' => '31',
                                          'MnglName' => '_ZN13opentelemetry2v15trace6TracerD2Ev',
                                          'Param' => {
                                                       '0' => {
                                                                'name' => 'this',
                                                                'type' => '118117'
                                                              }
                                                     },
                                          'ShortName' => 'Tracer',
                                          'Virt' => 1
                                        },
                            '167894' => {
                                          'Artificial' => 1,
                                          'Class' => '64314',
                                          'Constructor' => 1,
                                          'Header' => 'tracer.h',
                                          'InLine' => 1,
                                          'Line' => '28',
                                          'MnglName' => '_ZN13opentelemetry2v15trace6TracerC2Ev',
                                          'Param' => {
                                                       '0' => {
                                                                'name' => 'this',
                                                                'type' => '118117'
                                                              }
                                                     },
                                          'ShortName' => 'Tracer'
                                        },
                            '167895' => {
                                          'Artificial' => 1,
                                          'Class' => '64314',
                                          'Constructor' => 1,
                                          'Header' => 'tracer.h',
                                          'InLine' => 1,
                                          'Line' => '28',
                                          'MnglName' => '_ZN13opentelemetry2v15trace6TracerC1Ev',
                                          'Param' => {
                                                       '0' => {
                                                                'name' => 'this',
                                                                'type' => '118117'
                                                              }
                                                     },
                                          'ShortName' => 'Tracer'
                                        },
                            '16803' => {
                                         'Class' => '16411',
                                         'Header' => 'shared_ptr_base.h',
                                         'InLine' => 2,
                                         'Line' => '208',
                                         'MnglName' => '_ZNSt16_Sp_counted_baseILN9__gnu_cxx12_Lock_policyE2EE15_M_weak_releaseEv',
                                         'Param' => {
                                                      '0' => {
                                                               'name' => 'this',
                                                               'type' => '113731'
                                                             }
                                                    },
                                         'Return' => '1',
                                         'ShortName' => '_M_weak_release'
                                       },
                            '169259' => {
                                          'Artificial' => 1,
                                          'Class' => '44669',
                                          'Destructor' => 1,
                                          'Header' => 'shared_ptr.h',
                                          'InLine' => 1,
                                          'Line' => '175',
                                          'MnglName' => '_ZNSt10shared_ptrIN13opentelemetry2v15trace10NoopTracerEED2Ev',
                                          'Param' => {
                                                       '0' => {
                                                                'name' => 'this',
                                                                'type' => '117692'
                                                              }
                                                     },
                                          'ShortName' => 'shared_ptr'
                                        },
                            '169260' => {
                                          'Artificial' => 1,
                                          'Class' => '44669',
                                          'Destructor' => 1,
                                          'Header' => 'shared_ptr.h',
                                          'InLine' => 1,
                                          'Line' => '175',
                                          'MnglName' => '_ZNSt10shared_ptrIN13opentelemetry2v15trace10NoopTracerEED0Ev',
                                          'Param' => {
                                                       '0' => {
                                                                'name' => 'this',
                                                                'type' => '117692'
                                                              }
                                                     },
                                          'ShortName' => 'shared_ptr'
                                        },
                            '169315' => {
                                          'Artificial' => 1,
                                          'Class' => '43689',
                                          'Destructor' => 1,
                                          'Header' => 'shared_ptr_base.h',
                                          'InLine' => 1,
                                          'Line' => '1524',
                                          'MnglName' => '_ZNSt12__shared_ptrIN13opentelemetry2v15trace10NoopTracerELN9__gnu_cxx12_Lock_policyE2EED2Ev',
                                          'Param' => {
                                                       '0' => {
                                                                'name' => 'this',
                                                                'type' => '117652'
                                                              }
                                                     },
                                          'ShortName' => '__shared_ptr'
                                        },
                            '169316' => {
                                          'Artificial' => 1,
                                          'Class' => '43689',
                                          'Destructor' => 1,
                                          'Header' => 'shared_ptr_base.h',
                                          'InLine' => 1,
                                          'Line' => '1524',
                                          'MnglName' => '_ZNSt12__shared_ptrIN13opentelemetry2v15trace10NoopTracerELN9__gnu_cxx12_Lock_policyE2EED0Ev',
                                          'Param' => {
                                                       '0' => {
                                                                'name' => 'this',
                                                                'type' => '117652'
                                                              }
                                                     },
                                          'ShortName' => '__shared_ptr'
                                        },
                            '170010' => {
                                          'Artificial' => 1,
                                          'Class' => '66176',
                                          'Constructor' => 1,
                                          'Header' => 'noop.h',
                                          'InLine' => 1,
                                          'Line' => '33',
                                          'MnglName' => '_ZN13opentelemetry2v15trace8NoopSpanC2ERKSt10shared_ptrINS1_6TracerEE',
                                          'Param' => {
                                                       '0' => {
                                                                'name' => 'this',
                                                                'type' => '119196'
                                                              },
                                                       '1' => {
                                                                'name' => 'tracer',
                                                                'type' => '117472'
                                                              }
                                                     },
                                          'Reg' => {
                                                     '0' => 'rbp'
                                                   },
                                          'ShortName' => 'NoopSpan'
                                        },
                            '170011' => {
                                          'Artificial' => 1,
                                          'Class' => '66176',
                                          'Constructor' => 1,
                                          'Header' => 'noop.h',
                                          'InLine' => 1,
                                          'Line' => '33',
                                          'MnglName' => '_ZN13opentelemetry2v15trace8NoopSpanC1ERKSt10shared_ptrINS1_6TracerEE',
                                          'Param' => {
                                                       '0' => {
                                                                'name' => 'this',
                                                                'type' => '119196'
                                                              },
                                                       '1' => {
                                                                'name' => 'tracer',
                                                                'type' => '117472'
                                                              }
                                                     },
                                          'Reg' => {
                                                     '0' => 'rbp'
                                                   },
                                          'ShortName' => 'NoopSpan'
                                        },
                            '170720' => {
                                          'Artificial' => 1,
                                          'Class' => '42827',
                                          'Destructor' => 1,
                                          'Header' => 'shared_ptr.h',
                                          'InLine' => 1,
                                          'Line' => '175',
                                          'MnglName' => '_ZNSt10shared_ptrIN13opentelemetry2v15trace6TracerEED2Ev',
                                          'Param' => {
                                                       '0' => {
                                                                'name' => 'this',
                                                                'type' => '117467'
                                                              }
                                                     },
                                          'ShortName' => 'shared_ptr'
                                        },
                            '170721' => {
                                          'Artificial' => 1,
                                          'Class' => '42827',
                                          'Destructor' => 1,
                                          'Header' => 'shared_ptr.h',
                                          'InLine' => 1,
                                          'Line' => '175',
                                          'MnglName' => '_ZNSt10shared_ptrIN13opentelemetry2v15trace6TracerEED0Ev',
                                          'Param' => {
                                                       '0' => {
                                                                'name' => 'this',
                                                                'type' => '117467'
                                                              }
                                                     },
                                          'ShortName' => 'shared_ptr'
                                        },
                            '170772' => {
                                          'Artificial' => 1,
                                          'Class' => '42827',
                                          'Constructor' => 1,
                                          'Header' => 'shared_ptr.h',
                                          'InLine' => 1,
                                          'Line' => '204',
                                          'MnglName' => '_ZNSt10shared_ptrIN13opentelemetry2v15trace6TracerEEC2ERKS4_',
                                          'Param' => {
                                                       '0' => {
                                                                'name' => 'this',
                                                                'type' => '117467'
                                                              },
                                                       '1' => {
                                                                'name' => 'p1',
                                                                'type' => '117472'
                                                              }
                                                     },
                                          'ShortName' => 'shared_ptr'
                                        },
                            '170773' => {
                                          'Artificial' => 1,
                                          'Class' => '42827',
                                          'Constructor' => 1,
                                          'Header' => 'shared_ptr.h',
                                          'InLine' => 1,
                                          'Line' => '204',
                                          'MnglName' => '_ZNSt10shared_ptrIN13opentelemetry2v15trace6TracerEEC1ERKS4_',
                                          'Param' => {
                                                       '0' => {
                                                                'name' => 'this',
                                                                'type' => '117467'
                                                              },
                                                       '1' => {
                                                                'name' => 'p1',
                                                                'type' => '117472'
                                                              }
                                                     },
                                          'ShortName' => 'shared_ptr'
                                        },
                            '170833' => {
                                          'Artificial' => 1,
                                          'Class' => '42193',
                                          'Destructor' => 1,
                                          'Header' => 'shared_ptr_base.h',
                                          'InLine' => 1,
                                          'Line' => '1524',
                                          'MnglName' => '_ZNSt12__shared_ptrIN13opentelemetry2v15trace6TracerELN9__gnu_cxx12_Lock_policyE2EED2Ev',
                                          'Param' => {
                                                       '0' => {
                                                                'name' => 'this',
                                                                'type' => '117422'
                                                              }
                                                     },
                                          'ShortName' => '__shared_ptr'
                                        },
                            '170834' => {
                                          'Artificial' => 1,
                                          'Class' => '42193',
                                          'Destructor' => 1,
                                          'Header' => 'shared_ptr_base.h',
                                          'InLine' => 1,
                                          'Line' => '1524',
                                          'MnglName' => '_ZNSt12__shared_ptrIN13opentelemetry2v15trace6TracerELN9__gnu_cxx12_Lock_policyE2EED0Ev',
                                          'Param' => {
                                                       '0' => {
                                                                'name' => 'this',
                                                                'type' => '117422'
                                                              }
                                                     },
                                          'ShortName' => '__shared_ptr'
                                        },
                            '170885' => {
                                          'Artificial' => 1,
                                          'Class' => '42193',
                                          'Constructor' => 1,
                                          'Header' => 'shared_ptr_base.h',
                                          'InLine' => 1,
                                          'Line' => '1522',
                                          'MnglName' => '_ZNSt12__shared_ptrIN13opentelemetry2v15trace6TracerELN9__gnu_cxx12_Lock_policyE2EEC2ERKS6_',
                                          'Param' => {
                                                       '0' => {
                                                                'name' => 'this',
                                                                'type' => '117422'
                                                              },
                                                       '1' => {
                                                                'name' => 'p1',
                                                                'type' => '117427'
                                                              }
                                                     },
                                          'ShortName' => '__shared_ptr'
                                        },
                            '170886' => {
                                          'Artificial' => 1,
                                          'Class' => '42193',
                                          'Constructor' => 1,
                                          'Header' => 'shared_ptr_base.h',
                                          'InLine' => 1,
                                          'Line' => '1522',
                                          'MnglName' => '_ZNSt12__shared_ptrIN13opentelemetry2v15trace6TracerELN9__gnu_cxx12_Lock_policyE2EEC1ERKS6_',
                                          'Param' => {
                                                       '0' => {
                                                                'name' => 'this',
                                                                'type' => '117422'
                                                              },
                                                       '1' => {
                                                                'name' => 'p1',
                                                                'type' => '117427'
                                                              }
                                                     },
                                          'ShortName' => '__shared_ptr'
                                        },
                            '171532' => {
                                          'Artificial' => 1,
                                          'Class' => '65773',
                                          'Destructor' => 1,
                                          'Header' => 'span_context_kv_iterable.h',
                                          'InLine' => 1,
                                          'Line' => '20',
                                          'MnglName' => '_ZN13opentelemetry2v15trace27SpanContextKeyValueIterableD0Ev',
                                          'Param' => {
                                                       '0' => {
                                                                'name' => 'this',
                                                                'type' => '119246'
                                                              }
                                                     },
                                          'ShortName' => 'SpanContextKeyValueIterable',
                                          'Virt' => 1
                                        },
                            '171533' => {
                                          'Artificial' => 1,
                                          'Class' => '65773',
                                          'Destructor' => 1,
                                          'Header' => 'span_context_kv_iterable.h',
                                          'InLine' => 1,
                                          'Line' => '20',
                                          'MnglName' => '_ZN13opentelemetry2v15trace27SpanContextKeyValueIterableD1Ev',
                                          'Param' => {
                                                       '0' => {
                                                                'name' => 'this',
                                                                'type' => '119246'
                                                              }
                                                     },
                                          'ShortName' => 'SpanContextKeyValueIterable',
                                          'Virt' => 1
                                        },
                            '171555' => {
                                          'Artificial' => 1,
                                          'Class' => '65773',
                                          'Destructor' => 1,
                                          'Header' => 'span_context_kv_iterable.h',
                                          'InLine' => 1,
                                          'Line' => '20',
                                          'MnglName' => '_ZN13opentelemetry2v15trace27SpanContextKeyValueIterableD2Ev',
                                          'Param' => {
                                                       '0' => {
                                                                'name' => 'this',
                                                                'type' => '119246'
                                                              }
                                                     },
                                          'ShortName' => 'SpanContextKeyValueIterable',
                                          'Virt' => 1
                                        },
                            '171604' => {
                                          'Artificial' => 1,
                                          'Class' => '65773',
                                          'Constructor' => 1,
                                          'Header' => 'span_context_kv_iterable.h',
                                          'InLine' => 1,
                                          'Line' => '17',
                                          'MnglName' => '_ZN13opentelemetry2v15trace27SpanContextKeyValueIterableC2Ev',
                                          'Param' => {
                                                       '0' => {
                                                                'name' => 'this',
                                                                'type' => '119246'
                                                              }
                                                     },
                                          'ShortName' => 'SpanContextKeyValueIterable'
                                        },
                            '171605' => {
                                          'Artificial' => 1,
                                          'Class' => '65773',
                                          'Constructor' => 1,
                                          'Header' => 'span_context_kv_iterable.h',
                                          'InLine' => 1,
                                          'Line' => '17',
                                          'MnglName' => '_ZN13opentelemetry2v15trace27SpanContextKeyValueIterableC1Ev',
                                          'Param' => {
                                                       '0' => {
                                                                'name' => 'this',
                                                                'type' => '119246'
                                                              }
                                                     },
                                          'ShortName' => 'SpanContextKeyValueIterable'
                                        },
                            '171793' => {
                                          'Artificial' => 1,
                                          'Class' => '112486',
                                          'Destructor' => 1,
                                          'Header' => 'variant.h',
                                          'InLine' => 1,
                                          'Line' => '569',
                                          'MnglName' => '_ZN4absl7otel_v17variantIJN13opentelemetry2v15trace11SpanContextENS3_7context7ContextEEED2Ev',
                                          'Param' => {
                                                       '0' => {
                                                                'name' => 'this',
                                                                'type' => '117274'
                                                              }
                                                     },
                                          'ShortName' => 'variant'
                                        },
                            '171794' => {
                                          'Artificial' => 1,
                                          'Class' => '112486',
                                          'Destructor' => 1,
                                          'Header' => 'variant.h',
                                          'InLine' => 1,
                                          'Line' => '569',
                                          'MnglName' => '_ZN4absl7otel_v17variantIJN13opentelemetry2v15trace11SpanContextENS3_7context7ContextEEED0Ev',
                                          'Param' => {
                                                       '0' => {
                                                                'name' => 'this',
                                                                'type' => '117274'
                                                              }
                                                     },
                                          'ShortName' => 'variant'
                                        },
                            '171852' => {
                                          'Artificial' => 1,
                                          'Class' => '110328',
                                          'Destructor' => 1,
                                          'Header' => 'variant.h',
                                          'InLine' => 1,
                                          'Line' => '1437',
                                          'MnglName' => '_ZN4absl7otel_v116variant_internal31VariantCopyAssignBaseNontrivialIJN13opentelemetry2v15trace11SpanContextENS4_7context7ContextEEED2Ev',
                                          'Param' => {
                                                       '0' => {
                                                                'name' => 'this',
                                                                'type' => '117249'
                                                              }
                                                     },
                                          'ShortName' => 'VariantCopyAssignBaseNontrivial'
                                        },
                            '171853' => {
                                          'Artificial' => 1,
                                          'Class' => '110328',
                                          'Destructor' => 1,
                                          'Header' => 'variant.h',
                                          'InLine' => 1,
                                          'Line' => '1437',
                                          'MnglName' => '_ZN4absl7otel_v116variant_internal31VariantCopyAssignBaseNontrivialIJN13opentelemetry2v15trace11SpanContextENS4_7context7ContextEEED0Ev',
                                          'Param' => {
                                                       '0' => {
                                                                'name' => 'this',
                                                                'type' => '117249'
                                                              }
                                                     },
                                          'ShortName' => 'VariantCopyAssignBaseNontrivial'
                                        },
                            '171911' => {
                                          'Artificial' => 1,
                                          'Class' => '110020',
                                          'Destructor' => 1,
                                          'Header' => 'variant.h',
                                          'InLine' => 1,
                                          'Line' => '1406',
                                          'MnglName' => '_ZN4absl7otel_v116variant_internal31VariantMoveAssignBaseNontrivialIJN13opentelemetry2v15trace11SpanContextENS4_7context7ContextEEED2Ev',
                                          'Param' => {
                                                       '0' => {
                                                                'name' => 'this',
                                                                'type' => '117224'
                                                              }
                                                     },
                                          'ShortName' => 'VariantMoveAssignBaseNontrivial'
                                        },
                            '171912' => {
                                          'Artificial' => 1,
                                          'Class' => '110020',
                                          'Destructor' => 1,
                                          'Header' => 'variant.h',
                                          'InLine' => 1,
                                          'Line' => '1406',
                                          'MnglName' => '_ZN4absl7otel_v116variant_internal31VariantMoveAssignBaseNontrivialIJN13opentelemetry2v15trace11SpanContextENS4_7context7ContextEEED0Ev',
                                          'Param' => {
                                                       '0' => {
                                                                'name' => 'this',
                                                                'type' => '117224'
                                                              }
                                                     },
                                          'ShortName' => 'VariantMoveAssignBaseNontrivial'
                                        },
                            '171970' => {
                                          'Artificial' => 1,
                                          'Class' => '109714',
                                          'Destructor' => 1,
                                          'Header' => 'variant.h',
                                          'InLine' => 1,
                                          'Line' => '1365',
                                          'MnglName' => '_ZN4absl7otel_v116variant_internal25VariantCopyBaseNontrivialIJN13opentelemetry2v15trace11SpanContextENS4_7context7ContextEEED2Ev',
                                          'Param' => {
                                                       '0' => {
                                                                'name' => 'this',
                                                                'type' => '117199'
                                                              }
                                                     },
                                          'ShortName' => 'VariantCopyBaseNontrivial'
                                        },
                            '171971' => {
                                          'Artificial' => 1,
                                          'Class' => '109714',
                                          'Destructor' => 1,
                                          'Header' => 'variant.h',
                                          'InLine' => 1,
                                          'Line' => '1365',
                                          'MnglName' => '_ZN4absl7otel_v116variant_internal25VariantCopyBaseNontrivialIJN13opentelemetry2v15trace11SpanContextENS4_7context7ContextEEED0Ev',
                                          'Param' => {
                                                       '0' => {
                                                                'name' => 'this',
                                                                'type' => '117199'
                                                              }
                                                     },
                                          'ShortName' => 'VariantCopyBaseNontrivial'
                                        },
                            '172029' => {
                                          'Artificial' => 1,
                                          'Class' => '109408',
                                          'Destructor' => 1,
                                          'Header' => 'variant.h',
                                          'InLine' => 1,
                                          'Line' => '1323',
                                          'MnglName' => '_ZN4absl7otel_v116variant_internal25VariantMoveBaseNontrivialIJN13opentelemetry2v15trace11SpanContextENS4_7context7ContextEEED2Ev',
                                          'Param' => {
                                                       '0' => {
                                                                'name' => 'this',
                                                                'type' => '117174'
                                                              }
                                                     },
                                          'ShortName' => 'VariantMoveBaseNontrivial'
                                        },
                            '172030' => {
                                          'Artificial' => 1,
                                          'Class' => '109408',
                                          'Destructor' => 1,
                                          'Header' => 'variant.h',
                                          'InLine' => 1,
                                          'Line' => '1323',
                                          'MnglName' => '_ZN4absl7otel_v116variant_internal25VariantMoveBaseNontrivialIJN13opentelemetry2v15trace11SpanContextENS4_7context7ContextEEED0Ev',
                                          'Param' => {
                                                       '0' => {
                                                                'name' => 'this',
                                                                'type' => '117174'
                                                              }
                                                     },
                                          'ShortName' => 'VariantMoveBaseNontrivial'
                                        },
                            '172085' => {
                                          'Artificial' => 1,
                                          'Class' => '63437',
                                          'Destructor' => 1,
                                          'Header' => 'span.h',
                                          'InLine' => 1,
                                          'Line' => '38',
                                          'MnglName' => '_ZN13opentelemetry2v15trace4SpanD0Ev',
                                          'Param' => {
                                                       '0' => {
                                                                'name' => 'this',
                                                                'type' => '115934'
                                                              }
                                                     },
                                          'ShortName' => 'Span',
                                          'Virt' => 1
                                        },
                            '172086' => {
                                          'Artificial' => 1,
                                          'Class' => '63437',
                                          'Destructor' => 1,
                                          'Header' => 'span.h',
                                          'InLine' => 1,
                                          'Line' => '38',
                                          'MnglName' => '_ZN13opentelemetry2v15trace4SpanD1Ev',
                                          'Param' => {
                                                       '0' => {
                                                                'name' => 'this',
                                                                'type' => '115934'
                                                              }
                                                     },
                                          'ShortName' => 'Span',
                                          'Virt' => 1
                                        },
                            '172108' => {
                                          'Artificial' => 1,
                                          'Class' => '63437',
                                          'Destructor' => 1,
                                          'Header' => 'span.h',
                                          'InLine' => 1,
                                          'Line' => '38',
                                          'MnglName' => '_ZN13opentelemetry2v15trace4SpanD2Ev',
                                          'Param' => {
                                                       '0' => {
                                                                'name' => 'this',
                                                                'type' => '115934'
                                                              }
                                                     },
                                          'ShortName' => 'Span',
                                          'Virt' => 1
                                        },
                            '172155' => {
                                          'Artificial' => 1,
                                          'Class' => '63437',
                                          'Constructor' => 1,
                                          'Header' => 'span.h',
                                          'InLine' => 1,
                                          'Line' => '35',
                                          'MnglName' => '_ZN13opentelemetry2v15trace4SpanC2Ev',
                                          'Param' => {
                                                       '0' => {
                                                                'name' => 'this',
                                                                'type' => '115934'
                                                              }
                                                     },
                                          'ShortName' => 'Span'
                                        },
                            '172156' => {
                                          'Artificial' => 1,
                                          'Class' => '63437',
                                          'Constructor' => 1,
                                          'Header' => 'span.h',
                                          'InLine' => 1,
                                          'Line' => '35',
                                          'MnglName' => '_ZN13opentelemetry2v15trace4SpanC1Ev',
                                          'Param' => {
                                                       '0' => {
                                                                'name' => 'this',
                                                                'type' => '115934'
                                                              }
                                                     },
                                          'ShortName' => 'Span'
                                        },
                            '172214' => {
                                          'Artificial' => 1,
                                          'Class' => '62773',
                                          'Constructor' => 1,
                                          'Header' => 'span_context.h',
                                          'InLine' => 1,
                                          'Line' => '49',
                                          'MnglName' => '_ZN13opentelemetry2v15trace11SpanContextC2ERKS2_',
                                          'Param' => {
                                                       '0' => {
                                                                'name' => 'this',
                                                                'type' => '115103'
                                                              },
                                                       '1' => {
                                                                'name' => 'ctx',
                                                                'type' => '115108'
                                                              }
                                                     },
                                          'ShortName' => 'SpanContext'
                                        },
                            '172215' => {
                                          'Artificial' => 1,
                                          'Class' => '62773',
                                          'Constructor' => 1,
                                          'Header' => 'span_context.h',
                                          'InLine' => 1,
                                          'Line' => '49',
                                          'MnglName' => '_ZN13opentelemetry2v15trace11SpanContextC1ERKS2_',
                                          'Param' => {
                                                       '0' => {
                                                                'name' => 'this',
                                                                'type' => '115103'
                                                              },
                                                       '1' => {
                                                                'name' => 'ctx',
                                                                'type' => '115108'
                                                              }
                                                     },
                                          'ShortName' => 'SpanContext'
                                        },
                            '172450' => {
                                          'Artificial' => 1,
                                          'Class' => '93350',
                                          'Destructor' => 1,
                                          'Header' => 'context.h',
                                          'InLine' => 1,
                                          'Line' => '19',
                                          'MnglName' => '_ZN13opentelemetry2v17context7ContextD2Ev',
                                          'Param' => {
                                                       '0' => {
                                                                'name' => 'this',
                                                                'type' => '116589'
                                                              }
                                                     },
                                          'ShortName' => 'Context'
                                        },
                            '172451' => {
                                          'Artificial' => 1,
                                          'Class' => '93350',
                                          'Destructor' => 1,
                                          'Header' => 'context.h',
                                          'InLine' => 1,
                                          'Line' => '19',
                                          'MnglName' => '_ZN13opentelemetry2v17context7ContextD0Ev',
                                          'Param' => {
                                                       '0' => {
                                                                'name' => 'this',
                                                                'type' => '116589'
                                                              }
                                                     },
                                          'ShortName' => 'Context'
                                        },
                            '172717' => {
                                          'Artificial' => 1,
                                          'Class' => '91763',
                                          'Constructor' => 1,
                                          'Header' => 'timestamp.h',
                                          'InLine' => 1,
                                          'Line' => '105',
                                          'MnglName' => '_ZN13opentelemetry2v16common15SteadyTimestampC2Ev',
                                          'Param' => {
                                                       '0' => {
                                                                'name' => 'this',
                                                                'type' => '115283'
                                                              }
                                                     },
                                          'ShortName' => 'SteadyTimestamp'
                                        },
                            '172718' => {
                                          'Artificial' => 1,
                                          'Class' => '91763',
                                          'Constructor' => 1,
                                          'Header' => 'timestamp.h',
                                          'InLine' => 1,
                                          'Line' => '105',
                                          'MnglName' => '_ZN13opentelemetry2v16common15SteadyTimestampC1Ev',
                                          'Param' => {
                                                       '0' => {
                                                                'name' => 'this',
                                                                'type' => '115283'
                                                              }
                                                     },
                                          'ShortName' => 'SteadyTimestamp'
                                        },
                            '172776' => {
                                          'Artificial' => 1,
                                          'Class' => '91497',
                                          'Constructor' => 1,
                                          'Header' => 'timestamp.h',
                                          'InLine' => 1,
                                          'Line' => '44',
                                          'MnglName' => '_ZN13opentelemetry2v16common15SystemTimestampC2ERKNSt6chrono10time_pointINS3_3_V212system_clockENS3_8durationIlSt5ratioILl1ELl1000000000EEEEEE',
                                          'Param' => {
                                                       '0' => {
                                                                'name' => 'this',
                                                                'type' => '115263'
                                                              },
                                                       '1' => {
                                                                'name' => 'time_point',
                                                                'type' => '115158'
                                                              }
                                                     },
                                          'ShortName' => 'SystemTimestamp'
                                        },
                            '172777' => {
                                          'Artificial' => 1,
                                          'Class' => '91497',
                                          'Constructor' => 1,
                                          'Header' => 'timestamp.h',
                                          'InLine' => 1,
                                          'Line' => '44',
                                          'MnglName' => '_ZN13opentelemetry2v16common15SystemTimestampC1ERKNSt6chrono10time_pointINS3_3_V212system_clockENS3_8durationIlSt5ratioILl1ELl1000000000EEEEEE',
                                          'Param' => {
                                                       '0' => {
                                                                'name' => 'this',
                                                                'type' => '115263'
                                                              },
                                                       '1' => {
                                                                'name' => 'time_point',
                                                                'type' => '115158'
                                                              }
                                                     },
                                          'ShortName' => 'SystemTimestamp'
                                        },
                            '172953' => {
                                          'Artificial' => 1,
                                          'Class' => '91497',
                                          'Constructor' => 1,
                                          'Header' => 'timestamp.h',
                                          'InLine' => 1,
                                          'Line' => '26',
                                          'MnglName' => '_ZN13opentelemetry2v16common15SystemTimestampC2Ev',
                                          'Param' => {
                                                       '0' => {
                                                                'name' => 'this',
                                                                'type' => '115263'
                                                              }
                                                     },
                                          'ShortName' => 'SystemTimestamp'
                                        },
                            '172954' => {
                                          'Artificial' => 1,
                                          'Class' => '91497',
                                          'Constructor' => 1,
                                          'Header' => 'timestamp.h',
                                          'InLine' => 1,
                                          'Line' => '26',
                                          'MnglName' => '_ZN13opentelemetry2v16common15SystemTimestampC1Ev',
                                          'Param' => {
                                                       '0' => {
                                                                'name' => 'this',
                                                                'type' => '115263'
                                                              }
                                                     },
                                          'ShortName' => 'SystemTimestamp'
                                        },
                            '173022' => {
                                          'Artificial' => 1,
                                          'Class' => '26155',
                                          'Constructor' => 1,
                                          'Header' => 'chrono.h',
                                          'InLine' => 1,
                                          'Line' => '505',
                                          'MnglName' => '_ZNSt6chrono8durationIlSt5ratioILl1ELl1EEEC1IlvEERKT_',
                                          'Param' => {
                                                       '0' => {
                                                                'name' => 'this',
                                                                'type' => '115193'
                                                              },
                                                       '1' => {
                                                                'name' => '__rep',
                                                                'type' => '113210'
                                                              }
                                                     },
                                          'ShortName' => 'duration<long>',
                                          'TParam' => {
                                                        '0' => {
                                                                 'key' => '_Rep2',
                                                                 'type' => '202'
                                                               }
                                                      }
                                        },
                            '173023' => {
                                          'Artificial' => 1,
                                          'Class' => '26155',
                                          'Constructor' => 1,
                                          'Header' => 'chrono.h',
                                          'InLine' => 1,
                                          'Line' => '505',
                                          'MnglName' => '_ZNSt6chrono8durationIlSt5ratioILl1ELl1EEEC2IlvEERKT_',
                                          'Param' => {
                                                       '0' => {
                                                                'name' => 'this',
                                                                'type' => '115193'
                                                              },
                                                       '1' => {
                                                                'name' => '__rep',
                                                                'type' => '113210'
                                                              }
                                                     },
                                          'ShortName' => 'duration<long>',
                                          'TParam' => {
                                                        '0' => {
                                                                 'key' => '_Rep2',
                                                                 'type' => '202'
                                                               }
                                                      }
                                        },
                            '173129' => {
                                          'Artificial' => 1,
                                          'Class' => '24998',
                                          'Constructor' => 1,
                                          'Header' => 'chrono.h',
                                          'InLine' => 1,
                                          'Line' => '505',
                                          'MnglName' => '_ZNSt6chrono8durationIlSt5ratioILl1ELl1000000000EEEC1IlvEERKT_',
                                          'Param' => {
                                                       '0' => {
                                                                'name' => 'this',
                                                                'type' => '115128'
                                                              },
                                                       '1' => {
                                                                'name' => '__rep',
                                                                'type' => '113210'
                                                              }
                                                     },
                                          'ShortName' => 'duration<long>',
                                          'TParam' => {
                                                        '0' => {
                                                                 'key' => '_Rep2',
                                                                 'type' => '202'
